	.arch armv8-a
	.text
	.align	2
	.globl __ZnwmPv
	.weak_definition __ZnwmPv
__ZnwmPv:
LFB84:
	sub	sp, sp, #16
LCFI0:
	str	x0, [sp, 8]
	str	x1, [sp]
	ldr	x0, [sp]
	add	sp, sp, 16
LCFI1:
	ret
LFE84:
	.align	2
	.globl __ZdlPvS_
	.weak_definition __ZdlPvS_
__ZdlPvS_:
LFB86:
	sub	sp, sp, #16
LCFI2:
	str	x0, [sp, 8]
	str	x1, [sp]
	nop
	add	sp, sp, 16
LCFI3:
	ret
LFE86:
	.align	2
	.globl __ZSt17__size_to_integerm
	.weak_definition __ZSt17__size_to_integerm
__ZSt17__size_to_integerm:
LFB416:
	sub	sp, sp, #16
LCFI4:
	str	x0, [sp, 8]
	ldr	x0, [sp, 8]
	add	sp, sp, 16
LCFI5:
	ret
LFE416:
	.zerofill __DATA,__bss,__ZStL8__ioinit,1,3
	.text
	.align	2
	.globl __ZSt16__deque_buf_sizem
	.weak_definition __ZSt16__deque_buf_sizem
__ZSt16__deque_buf_sizem:
LFB2133:
	sub	sp, sp, #16
LCFI6:
	str	x0, [sp, 8]
	ldr	x0, [sp, 8]
	cmp	x0, 511
	bhi	L7
	mov	x1, 512
	ldr	x0, [sp, 8]
	udiv	x0, x1, x0
	b	L9
L7:
	mov	x0, 1
L9:
	add	sp, sp, 16
LCFI7:
	ret
LFE2133:
	.align	2
	.globl __ZNSt12_Vector_baseISt6vectorIiSaIiEESaIS2_EE12_Vector_implD1Ev
	.weak_definition __ZNSt12_Vector_baseISt6vectorIiSaIiEESaIS2_EE12_Vector_implD1Ev
__ZNSt12_Vector_baseISt6vectorIiSaIiEESaIS2_EE12_Vector_implD1Ev:
LFB2403:
	stp	x29, x30, [sp, -32]!
LCFI8:
	mov	x29, sp
	str	x0, [sp, 24]
	ldr	x0, [sp, 24]
	bl	__ZNSaISt6vectorIiSaIiEEED2Ev
	nop
	ldp	x29, x30, [sp], 32
LCFI9:
	ret
LFE2403:
	.align	2
	.globl __ZNSt12_Vector_baseISt6vectorIiSaIiEESaIS2_EEC2Ev
	.weak_definition __ZNSt12_Vector_baseISt6vectorIiSaIiEESaIS2_EEC2Ev
__ZNSt12_Vector_baseISt6vectorIiSaIiEESaIS2_EEC2Ev:
LFB2404:
	stp	x29, x30, [sp, -32]!
LCFI10:
	mov	x29, sp
	str	x0, [sp, 24]
	ldr	x0, [sp, 24]
	bl	__ZNSt12_Vector_baseISt6vectorIiSaIiEESaIS2_EE12_Vector_implC1Ev
	nop
	ldp	x29, x30, [sp], 32
LCFI11:
	ret
LFE2404:
	.align	2
	.globl __ZNSt6vectorIS_IiSaIiEESaIS1_EEC1Ev
	.weak_definition __ZNSt6vectorIS_IiSaIiEESaIS1_EEC1Ev
__ZNSt6vectorIS_IiSaIiEESaIS1_EEC1Ev:
LFB2407:
	stp	x29, x30, [sp, -32]!
LCFI12:
	mov	x29, sp
	str	x0, [sp, 24]
	ldr	x0, [sp, 24]
	bl	__ZNSt12_Vector_baseISt6vectorIiSaIiEESaIS2_EEC2Ev
	nop
	ldp	x29, x30, [sp], 32
LCFI13:
	ret
LFE2407:
	.align	2
	.globl __ZN18Graph_FlowNetWorksC2Ei
__ZN18Graph_FlowNetWorksC2Ei:
LFB2411:
	stp	x29, x30, [sp, -64]!
LCFI14:
	mov	x29, sp
	str	x19, [sp, 16]
LCFI15:
	str	x0, [sp, 40]
	str	w1, [sp, 36]
	ldr	x0, [sp, 40]
	ldr	w1, [sp, 36]
	str	w1, [x0]
	ldr	x0, [sp, 40]
	add	x0, x0, 8
	bl	__ZNSt6vectorIS_IiSaIiEESaIS1_EEC1Ev
	ldr	x0, [sp, 40]
	add	x2, x0, 8
	ldr	x0, [sp, 40]
	ldr	w0, [x0]
	sxtw	x0, w0
	mov	x1, x0
	mov	x0, x2
LEHB0:
	bl	__ZNSt6vectorIS_IiSaIiEESaIS1_EE6resizeEm
	str	wzr, [sp, 60]
	b	L14
L15:
	ldr	x0, [sp, 40]
	add	x0, x0, 8
	ldrsw	x1, [sp, 60]
	bl	__ZNSt6vectorIS_IiSaIiEESaIS1_EEixEm
	mov	x2, x0
	ldr	x0, [sp, 40]
	ldr	w0, [x0]
	sxtw	x0, w0
	mov	x1, x0
	mov	x0, x2
	bl	__ZNSt6vectorIiSaIiEE6resizeEm
LEHE0:
	ldr	w0, [sp, 60]
	add	w0, w0, 1
	str	w0, [sp, 60]
L14:
	ldr	x0, [sp, 40]
	ldr	w0, [x0]
	ldr	w1, [sp, 60]
	cmp	w1, w0
	blt	L15
	b	L18
L17:
	mov	x19, x0
	ldr	x0, [sp, 40]
	add	x0, x0, 8
	bl	__ZNSt6vectorIS_IiSaIiEESaIS1_EED1Ev
	mov	x0, x19
LEHB1:
	bl	__Unwind_Resume
LEHE1:
L18:
	ldr	x19, [sp, 16]
	ldp	x29, x30, [sp], 64
LCFI16:
	ret
LFE2411:
	.section __DATA,__gcc_except_tab
_GCC_except_table0:
LLSDA2411:
	.byte	0xff
	.byte	0xff
	.byte	0x1
	.uleb128 LLSDACSE2411-LLSDACSB2411
LLSDACSB2411:
	.uleb128 LEHB0-LFB2411
	.uleb128 LEHE0-LEHB0
	.uleb128 L17-LFB2411
	.uleb128 0
	.uleb128 LEHB1-LFB2411
	.uleb128 LEHE1-LEHB1
	.uleb128 0
	.uleb128 0
LLSDACSE2411:
	.text
	.align	2
	.globl __ZN18Graph_FlowNetWorksC1Ei
__ZN18Graph_FlowNetWorksC1Ei:
LFB2412:
	stp	x29, x30, [sp, -64]!
LCFI17:
	mov	x29, sp
	str	x19, [sp, 16]
LCFI18:
	str	x0, [sp, 40]
	str	w1, [sp, 36]
	ldr	x0, [sp, 40]
	ldr	w1, [sp, 36]
	str	w1, [x0]
	ldr	x0, [sp, 40]
	add	x0, x0, 8
	bl	__ZNSt6vectorIS_IiSaIiEESaIS1_EEC1Ev
	ldr	x0, [sp, 40]
	add	x2, x0, 8
	ldr	x0, [sp, 40]
	ldr	w0, [x0]
	sxtw	x0, w0
	mov	x1, x0
	mov	x0, x2
LEHB2:
	bl	__ZNSt6vectorIS_IiSaIiEESaIS1_EE6resizeEm
	str	wzr, [sp, 60]
	b	L20
L21:
	ldr	x0, [sp, 40]
	add	x0, x0, 8
	ldrsw	x1, [sp, 60]
	bl	__ZNSt6vectorIS_IiSaIiEESaIS1_EEixEm
	mov	x2, x0
	ldr	x0, [sp, 40]
	ldr	w0, [x0]
	sxtw	x0, w0
	mov	x1, x0
	mov	x0, x2
	bl	__ZNSt6vectorIiSaIiEE6resizeEm
LEHE2:
	ldr	w0, [sp, 60]
	add	w0, w0, 1
	str	w0, [sp, 60]
L20:
	ldr	x0, [sp, 40]
	ldr	w0, [x0]
	ldr	w1, [sp, 60]
	cmp	w1, w0
	blt	L21
	b	L24
L23:
	mov	x19, x0
	ldr	x0, [sp, 40]
	add	x0, x0, 8
	bl	__ZNSt6vectorIS_IiSaIiEESaIS1_EED1Ev
	mov	x0, x19
LEHB3:
	bl	__Unwind_Resume
LEHE3:
L24:
	ldr	x19, [sp, 16]
	ldp	x29, x30, [sp], 64
LCFI19:
	ret
LFE2412:
	.section __DATA,__gcc_except_tab
_GCC_except_table1:
LLSDA2412:
	.byte	0xff
	.byte	0xff
	.byte	0x1
	.uleb128 LLSDACSE2412-LLSDACSB2412
LLSDACSB2412:
	.uleb128 LEHB2-LFB2412
	.uleb128 LEHE2-LEHB2
	.uleb128 L23-LFB2412
	.uleb128 0
	.uleb128 LEHB3-LFB2412
	.uleb128 LEHE3-LEHB3
	.uleb128 0
	.uleb128 0
LLSDACSE2412:
	.text
	.align	2
	.globl __ZNSt5queueIiSt5dequeIiSaIiEEED1Ev
	.weak_definition __ZNSt5queueIiSt5dequeIiSaIiEEED1Ev
__ZNSt5queueIiSt5dequeIiSaIiEEED1Ev:
LFB2417:
	stp	x29, x30, [sp, -32]!
LCFI20:
	mov	x29, sp
	str	x0, [sp, 24]
	ldr	x0, [sp, 24]
	bl	__ZNSt5dequeIiSaIiEED1Ev
	nop
	ldp	x29, x30, [sp], 32
LCFI21:
	ret
LFE2417:
	.align	2
	.globl __ZN18Graph_FlowNetWorks19BFSfindExistingPathESt6vectorIS0_IiSaIiEESaIS2_EEPiii
__ZN18Graph_FlowNetWorks19BFSfindExistingPathESt6vectorIS0_IiSaIiEESaIS2_EEPiii:
LFB2413:
	stp	x29, x30, [sp, -192]!
LCFI22:
	mov	x29, sp
LCFI23:
	stp	x19, x20, [sp, 16]
LCFI24:
	str	x0, [x29, 56]
	str	x1, [x29, 48]
	str	x2, [x29, 40]
	str	w3, [x29, 36]
	str	w4, [x29, 32]
	mov	x0, sp
	mov	x20, x0
	ldr	x0, [x29, 56]
	ldr	w0, [x0]
	sxtw	x1, w0
	sub	x1, x1, #1
	str	x1, [x29, 176]
	sxtw	x1, w0
	mov	x12, x1
	mov	x13, 0
	lsr	x1, x12, 59
	lsl	x9, x13, 5
	orr	x9, x1, x9
	lsl	x8, x12, 5
	sxtw	x1, w0
	mov	x10, x1
	mov	x11, 0
	lsr	x1, x10, 59
	lsl	x7, x11, 5
	orr	x7, x1, x7
	lsl	x6, x10, 5
	sxtw	x0, w0
	lsl	x0, x0, 2
	add	x0, x0, 15
	lsr	x0, x0, 4
	lsl	x0, x0, 4
	sub	sp, sp, x0
	mov	x0, sp
	add	x0, x0, 3
	lsr	x0, x0, 2
	lsl	x0, x0, 2
	str	x0, [x29, 168]
	str	wzr, [x29, 188]
	b	L27
L28:
	ldr	x0, [x29, 168]
	ldrsw	x1, [x29, 188]
	str	wzr, [x0, x1, lsl 2]
	ldrsw	x0, [x29, 188]
	lsl	x0, x0, 2
	ldr	x1, [x29, 40]
	add	x0, x1, x0
	mov	w1, -1
	str	w1, [x0]
	ldr	w0, [x29, 188]
	add	w0, w0, 1
	str	w0, [x29, 188]
L27:
	ldr	x0, [x29, 56]
	ldr	w0, [x0]
	ldr	w1, [x29, 188]
	cmp	w1, w0
	blt	L28
	add	x0, x29, 80
LEHB4:
	bl	__ZNSt5queueIiSt5dequeIiSaIiEEEC1IS2_vEEv
LEHE4:
	add	x1, x29, 36
	add	x0, x29, 80
LEHB5:
	bl	__ZNSt5queueIiSt5dequeIiSaIiEEE4pushERKi
	ldr	w1, [x29, 36]
	ldr	x0, [x29, 168]
	sxtw	x1, w1
	mov	w2, 1
	str	w2, [x0, x1, lsl 2]
	b	L29
L35:
	add	x0, x29, 80
	bl	__ZNSt5queueIiSt5dequeIiSaIiEEE5frontEv
	ldr	w0, [x0]
	str	w0, [x29, 164]
	str	wzr, [x29, 76]
	b	L30
L34:
	ldrsw	x0, [x29, 164]
	mov	x1, x0
	ldr	x0, [x29, 48]
	bl	__ZNSt6vectorIS_IiSaIiEESaIS1_EEixEm
	mov	x2, x0
	ldr	w0, [x29, 76]
	sxtw	x0, w0
	mov	x1, x0
	mov	x0, x2
	bl	__ZNSt6vectorIiSaIiEEixEm
	ldr	w0, [x0]
	cmp	w0, 0
	beq	L31
	ldr	w1, [x29, 76]
	ldr	x0, [x29, 168]
	sxtw	x1, w1
	ldr	w0, [x0, x1, lsl 2]
	cmp	w0, 0
	bne	L31
	mov	w0, 1
	b	L32
L31:
	mov	w0, 0
L32:
	cmp	w0, 0
	beq	L33
	add	x1, x29, 76
	add	x0, x29, 80
	bl	__ZNSt5queueIiSt5dequeIiSaIiEEE4pushERKi
LEHE5:
	ldr	w1, [x29, 76]
	ldr	x0, [x29, 168]
	sxtw	x1, w1
	mov	w2, 1
	str	w2, [x0, x1, lsl 2]
	ldr	w0, [x29, 76]
	sxtw	x0, w0
	lsl	x0, x0, 2
	ldr	x1, [x29, 40]
	add	x0, x1, x0
	ldr	w1, [x29, 164]
	str	w1, [x0]
L33:
	ldr	w0, [x29, 76]
	add	w0, w0, 1
	str	w0, [x29, 76]
L30:
	ldr	x0, [x29, 56]
	ldr	w1, [x0]
	ldr	w0, [x29, 76]
	cmp	w1, w0
	bgt	L34
	add	x0, x29, 80
	bl	__ZNSt5queueIiSt5dequeIiSaIiEEE3popEv
L29:
	add	x0, x29, 80
	bl	__ZNKSt5queueIiSt5dequeIiSaIiEEE5emptyEv
	and	w0, w0, 255
	eor	w0, w0, 1
	and	w0, w0, 255
	cmp	w0, 0
	bne	L35
	ldr	x0, [x29, 168]
	ldrsw	x1, [x29, 32]
	ldr	w0, [x0, x1, lsl 2]
	cmp	w0, 1
	cset	w0, eq
	and	w19, w0, 255
	add	x0, x29, 80
	bl	__ZNSt5queueIiSt5dequeIiSaIiEEED1Ev
	mov	sp, x20
	mov	w0, w19
	b	L39
L38:
	mov	x19, x0
	add	x0, x29, 80
	bl	__ZNSt5queueIiSt5dequeIiSaIiEEED1Ev
	mov	x0, x19
LEHB6:
	bl	__Unwind_Resume
LEHE6:
L39:
	mov	sp, x29
	ldp	x19, x20, [sp, 16]
	ldp	x29, x30, [sp], 192
LCFI25:
	ret
LFE2413:
	.section __DATA,__gcc_except_tab
_GCC_except_table2:
LLSDA2413:
	.byte	0xff
	.byte	0xff
	.byte	0x1
	.uleb128 LLSDACSE2413-LLSDACSB2413
LLSDACSB2413:
	.uleb128 LEHB4-LFB2413
	.uleb128 LEHE4-LEHB4
	.uleb128 0
	.uleb128 0
	.uleb128 LEHB5-LFB2413
	.uleb128 LEHE5-LEHB5
	.uleb128 L38-LFB2413
	.uleb128 0
	.uleb128 LEHB6-LFB2413
	.uleb128 LEHE6-LEHB6
	.uleb128 0
	.uleb128 0
LLSDACSE2413:
	.text
	.align	2
	.globl __ZN18Graph_FlowNetWorks11MinCapacityESt6vectorIS0_IiSaIiEESaIS2_EEPii
__ZN18Graph_FlowNetWorks11MinCapacityESt6vectorIS0_IiSaIiEESaIS2_EEPii:
LFB2418:
	stp	x29, x30, [sp, -64]!
LCFI26:
	mov	x29, sp
	str	x0, [sp, 40]
	str	x1, [sp, 32]
	str	x2, [sp, 24]
	str	w3, [sp, 20]
	mov	w0, 100
	str	w0, [sp, 60]
	ldr	w0, [sp, 20]
	str	w0, [sp, 56]
	b	L41
L45:
	ldrsw	x0, [sp, 56]
	lsl	x0, x0, 2
	ldr	x1, [sp, 24]
	add	x0, x1, x0
	ldr	w0, [x0]
	sxtw	x0, w0
	mov	x1, x0
	ldr	x0, [sp, 32]
	bl	__ZNSt6vectorIS_IiSaIiEESaIS1_EEixEm
	mov	x2, x0
	ldrsw	x0, [sp, 56]
	mov	x1, x0
	mov	x0, x2
	bl	__ZNSt6vectorIiSaIiEEixEm
	ldr	w0, [x0]
	cmp	w0, 0
	beq	L42
	ldrsw	x0, [sp, 56]
	lsl	x0, x0, 2
	ldr	x1, [sp, 24]
	add	x0, x1, x0
	ldr	w0, [x0]
	sxtw	x0, w0
	mov	x1, x0
	ldr	x0, [sp, 32]
	bl	__ZNSt6vectorIS_IiSaIiEESaIS1_EEixEm
	mov	x2, x0
	ldrsw	x0, [sp, 56]
	mov	x1, x0
	mov	x0, x2
	bl	__ZNSt6vectorIiSaIiEEixEm
	ldr	w0, [x0]
	ldr	w1, [sp, 60]
	cmp	w1, w0
	ble	L42
	mov	w0, 1
	b	L43
L42:
	mov	w0, 0
L43:
	cmp	w0, 0
	beq	L44
	ldrsw	x0, [sp, 56]
	lsl	x0, x0, 2
	ldr	x1, [sp, 24]
	add	x0, x1, x0
	ldr	w0, [x0]
	sxtw	x0, w0
	mov	x1, x0
	ldr	x0, [sp, 32]
	bl	__ZNSt6vectorIS_IiSaIiEESaIS1_EEixEm
	mov	x2, x0
	ldrsw	x0, [sp, 56]
	mov	x1, x0
	mov	x0, x2
	bl	__ZNSt6vectorIiSaIiEEixEm
	ldr	w0, [x0]
	str	w0, [sp, 60]
L44:
	ldrsw	x0, [sp, 56]
	lsl	x0, x0, 2
	ldr	x1, [sp, 24]
	add	x0, x1, x0
	ldr	w0, [x0]
	str	w0, [sp, 56]
L41:
	ldrsw	x0, [sp, 56]
	lsl	x0, x0, 2
	ldr	x1, [sp, 24]
	add	x0, x1, x0
	ldr	w0, [x0]
	cmn	w0, #1
	bne	L45
	ldr	w0, [sp, 60]
	ldp	x29, x30, [sp], 64
LCFI27:
	ret
LFE2418:
	.cstring
	.align	3
lC0:
	.ascii "Possible Maximum Flow: \0"
	.text
	.align	2
	.globl __ZN18Graph_FlowNetWorks13FordFulkersonEii
__ZN18Graph_FlowNetWorks13FordFulkersonEii:
LFB2419:
	stp	x29, x30, [sp, -224]!
LCFI28:
	mov	x29, sp
LCFI29:
	stp	x19, x20, [sp, 16]
	stp	x21, x22, [sp, 32]
	stp	x23, x24, [sp, 48]
	stp	x25, x26, [sp, 64]
	stp	x27, x28, [sp, 80]
LCFI30:
	str	x0, [x29, 104]
	str	w1, [x29, 100]
	str	w2, [x29, 96]
	mov	x0, sp
	mov	x28, x0
	ldr	x0, [x29, 104]
	add	x1, x0, 8
	add	x0, x29, 120
LEHB7:
	bl	__ZNSt6vectorIS_IiSaIiEESaIS1_EEC1ERKS3_
LEHE7:
	str	wzr, [x29, 220]
	ldr	x0, [x29, 104]
	ldr	w0, [x0]
	sxtw	x1, w0
	sub	x1, x1, #1
	str	x1, [x29, 208]
	sxtw	x1, w0
	mov	x26, x1
	mov	x27, 0
	lsr	x1, x26, 59
	lsl	x23, x27, 5
	orr	x23, x1, x23
	lsl	x22, x26, 5
	sxtw	x1, w0
	mov	x24, x1
	mov	x25, 0
	lsr	x1, x24, 59
	lsl	x21, x25, 5
	orr	x21, x1, x21
	lsl	x20, x24, 5
	sxtw	x0, w0
	lsl	x0, x0, 2
	add	x0, x0, 15
	lsr	x0, x0, 4
	lsl	x0, x0, 4
	sub	sp, sp, x0
	mov	x0, sp
	add	x0, x0, 3
	lsr	x0, x0, 2
	lsl	x0, x0, 2
	str	x0, [x29, 200]
	b	L48
L51:
	add	x1, x29, 120
	add	x0, x29, 144
LEHB8:
	bl	__ZNSt6vectorIS_IiSaIiEESaIS1_EEC1ERKS3_
LEHE8:
	add	x0, x29, 144
	ldr	w3, [x29, 96]
	ldr	x2, [x29, 200]
	mov	x1, x0
	ldr	x0, [x29, 104]
LEHB9:
	bl	__ZN18Graph_FlowNetWorks11MinCapacityESt6vectorIS0_IiSaIiEESaIS2_EEPii
LEHE9:
	str	w0, [x29, 196]
	add	x0, x29, 144
	bl	__ZNSt6vectorIS_IiSaIiEESaIS1_EED1Ev
	ldr	w1, [x29, 220]
	ldr	w0, [x29, 196]
	add	w0, w1, w0
	str	w0, [x29, 220]
	ldr	w0, [x29, 96]
	str	w0, [x29, 216]
	b	L49
L50:
	ldr	x0, [x29, 200]
	ldrsw	x1, [x29, 216]
	ldr	w0, [x0, x1, lsl 2]
	str	w0, [x29, 192]
	ldrsw	x1, [x29, 192]
	add	x0, x29, 120
	bl	__ZNSt6vectorIS_IiSaIiEESaIS1_EEixEm
	mov	x2, x0
	ldrsw	x0, [x29, 216]
	mov	x1, x0
	mov	x0, x2
	bl	__ZNSt6vectorIiSaIiEEixEm
	ldr	w2, [x0]
	ldr	w1, [x29, 196]
	sub	w1, w2, w1
	str	w1, [x0]
	ldrsw	x1, [x29, 216]
	add	x0, x29, 120
	bl	__ZNSt6vectorIS_IiSaIiEESaIS1_EEixEm
	mov	x2, x0
	ldrsw	x0, [x29, 192]
	mov	x1, x0
	mov	x0, x2
	bl	__ZNSt6vectorIiSaIiEEixEm
	ldr	w2, [x0]
	ldr	w1, [x29, 196]
	add	w1, w2, w1
	str	w1, [x0]
	ldr	x0, [x29, 200]
	ldrsw	x1, [x29, 216]
	ldr	w0, [x0, x1, lsl 2]
	str	w0, [x29, 216]
L49:
	ldr	w1, [x29, 216]
	ldr	w0, [x29, 100]
	cmp	w1, w0
	bne	L50
L48:
	add	x1, x29, 120
	add	x0, x29, 168
LEHB10:
	bl	__ZNSt6vectorIS_IiSaIiEESaIS1_EEC1ERKS3_
LEHE10:
	add	x0, x29, 168
	ldr	w4, [x29, 96]
	ldr	w3, [x29, 100]
	ldr	x2, [x29, 200]
	mov	x1, x0
	ldr	x0, [x29, 104]
LEHB11:
	bl	__ZN18Graph_FlowNetWorks19BFSfindExistingPathESt6vectorIS0_IiSaIiEESaIS2_EEPiii
LEHE11:
	and	w19, w0, 255
	add	x0, x29, 168
	bl	__ZNSt6vectorIS_IiSaIiEESaIS1_EED1Ev
	cmp	w19, 0
	bne	L51
	adrp	x0, lC0@GOTPAGE
	ldr	x1, [x0, lC0@GOTPAGEOFF];momd
	adrp	x0, __ZSt4cout@GOTPAGE
	ldr	x0, [x0, __ZSt4cout@GOTPAGEOFF];momd
LEHB12:
	bl	__ZStlsISt11char_traitsIcEERSt13basic_ostreamIcT_ES5_PKc
	ldr	w1, [x29, 220]
	bl	__ZNSolsEi
	mov	x2, x0
	adrp	x0, __ZSt4endlIcSt11char_traitsIcEERSt13basic_ostreamIT_T0_ES6_@GOTPAGE
	ldr	x1, [x0, __ZSt4endlIcSt11char_traitsIcEERSt13basic_ostreamIT_T0_ES6_@GOTPAGEOFF];momd
	mov	x0, x2
	bl	__ZNSolsEPFRSoS_E
LEHE12:
	add	x0, x29, 120
	bl	__ZNSt6vectorIS_IiSaIiEESaIS1_EED1Ev
	mov	sp, x28
	b	L58
L56:
	mov	x19, x0
	add	x0, x29, 144
	bl	__ZNSt6vectorIS_IiSaIiEESaIS1_EED1Ev
	b	L53
L57:
	mov	x19, x0
	add	x0, x29, 168
	bl	__ZNSt6vectorIS_IiSaIiEESaIS1_EED1Ev
	b	L53
L55:
	mov	x19, x0
L53:
	add	x0, x29, 120
	bl	__ZNSt6vectorIS_IiSaIiEESaIS1_EED1Ev
	mov	x0, x19
LEHB13:
	bl	__Unwind_Resume
LEHE13:
L58:
	mov	sp, x29
	ldp	x19, x20, [sp, 16]
	ldp	x21, x22, [sp, 32]
	ldp	x23, x24, [sp, 48]
	ldp	x25, x26, [sp, 64]
	ldp	x27, x28, [sp, 80]
	ldp	x29, x30, [sp], 224
LCFI31:
	ret
LFE2419:
	.section __DATA,__gcc_except_tab
_GCC_except_table3:
LLSDA2419:
	.byte	0xff
	.byte	0xff
	.byte	0x1
	.uleb128 LLSDACSE2419-LLSDACSB2419
LLSDACSB2419:
	.uleb128 LEHB7-LFB2419
	.uleb128 LEHE7-LEHB7
	.uleb128 0
	.uleb128 0
	.uleb128 LEHB8-LFB2419
	.uleb128 LEHE8-LEHB8
	.uleb128 L55-LFB2419
	.uleb128 0
	.uleb128 LEHB9-LFB2419
	.uleb128 LEHE9-LEHB9
	.uleb128 L56-LFB2419
	.uleb128 0
	.uleb128 LEHB10-LFB2419
	.uleb128 LEHE10-LEHB10
	.uleb128 L55-LFB2419
	.uleb128 0
	.uleb128 LEHB11-LFB2419
	.uleb128 LEHE11-LEHB11
	.uleb128 L57-LFB2419
	.uleb128 0
	.uleb128 LEHB12-LFB2419
	.uleb128 LEHE12-LEHB12
	.uleb128 L55-LFB2419
	.uleb128 0
	.uleb128 LEHB13-LFB2419
	.uleb128 LEHE13-LEHB13
	.uleb128 0
	.uleb128 0
LLSDACSE2419:
	.text
	.align	2
	.globl __ZN18Graph_FlowNetWorks7AddEdgeEiii
__ZN18Graph_FlowNetWorks7AddEdgeEiii:
LFB2420:
	stp	x29, x30, [sp, -64]!
LCFI32:
	mov	x29, sp
	str	x19, [sp, 16]
LCFI33:
	str	x0, [sp, 56]
	str	w1, [sp, 52]
	str	w2, [sp, 48]
	str	w3, [sp, 44]
	ldr	w19, [sp, 44]
	ldr	x0, [sp, 56]
	add	x0, x0, 8
	ldrsw	x1, [sp, 52]
	bl	__ZNSt6vectorIS_IiSaIiEESaIS1_EEixEm
	mov	x2, x0
	ldrsw	x0, [sp, 48]
	mov	x1, x0
	mov	x0, x2
	bl	__ZNSt6vectorIiSaIiEEixEm
	str	w19, [x0]
	nop
	ldr	x19, [sp, 16]
	ldp	x29, x30, [sp], 64
LCFI34:
	ret
LFE2420:
	.align	2
	.globl __ZN18Graph_FlowNetWorksD1Ev
	.weak_definition __ZN18Graph_FlowNetWorksD1Ev
__ZN18Graph_FlowNetWorksD1Ev:
LFB2424:
	stp	x29, x30, [sp, -32]!
LCFI35:
	mov	x29, sp
	str	x0, [sp, 24]
	ldr	x0, [sp, 24]
	add	x0, x0, 8
	bl	__ZNSt6vectorIS_IiSaIiEESaIS1_EED1Ev
	nop
	ldp	x29, x30, [sp], 32
LCFI36:
	ret
LFE2424:
	.align	2
	.globl _main
_main:
LFB2421:
	stp	x29, x30, [sp, -64]!
LCFI37:
	mov	x29, sp
	str	x19, [sp, 16]
LCFI38:
	add	x0, sp, 32
	mov	w1, 6
LEHB14:
	bl	__ZN18Graph_FlowNetWorksC1Ei
LEHE14:
	add	x0, sp, 32
	mov	w3, 9
	mov	w2, 1
	mov	w1, 0
LEHB15:
	bl	__ZN18Graph_FlowNetWorks7AddEdgeEiii
	add	x0, sp, 32
	mov	w3, 9
	mov	w2, 3
	mov	w1, 0
	bl	__ZN18Graph_FlowNetWorks7AddEdgeEiii
	add	x0, sp, 32
	mov	w3, 3
	mov	w2, 2
	mov	w1, 1
	bl	__ZN18Graph_FlowNetWorks7AddEdgeEiii
	add	x0, sp, 32
	mov	w3, 8
	mov	w2, 3
	mov	w1, 1
	bl	__ZN18Graph_FlowNetWorks7AddEdgeEiii
	add	x0, sp, 32
	mov	w3, 2
	mov	w2, 4
	mov	w1, 2
	bl	__ZN18Graph_FlowNetWorks7AddEdgeEiii
	add	x0, sp, 32
	mov	w3, 9
	mov	w2, 5
	mov	w1, 2
	bl	__ZN18Graph_FlowNetWorks7AddEdgeEiii
	add	x0, sp, 32
	mov	w3, 7
	mov	w2, 2
	mov	w1, 3
	bl	__ZN18Graph_FlowNetWorks7AddEdgeEiii
	add	x0, sp, 32
	mov	w3, 7
	mov	w2, 4
	mov	w1, 3
	bl	__ZN18Graph_FlowNetWorks7AddEdgeEiii
	add	x0, sp, 32
	mov	w3, 4
	mov	w2, 2
	mov	w1, 4
	bl	__ZN18Graph_FlowNetWorks7AddEdgeEiii
	add	x0, sp, 32
	mov	w3, 8
	mov	w2, 5
	mov	w1, 4
	bl	__ZN18Graph_FlowNetWorks7AddEdgeEiii
	add	x0, sp, 32
	mov	w2, 5
	mov	w1, 0
	bl	__ZN18Graph_FlowNetWorks13FordFulkersonEii
LEHE15:
	mov	w19, 0
	add	x0, sp, 32
	bl	__ZN18Graph_FlowNetWorksD1Ev
	mov	w0, w19
	b	L65
L64:
	mov	x19, x0
	add	x0, sp, 32
	bl	__ZN18Graph_FlowNetWorksD1Ev
	mov	x0, x19
LEHB16:
	bl	__Unwind_Resume
LEHE16:
L65:
	ldr	x19, [sp, 16]
	ldp	x29, x30, [sp], 64
LCFI39:
	ret
LFE2421:
	.section __DATA,__gcc_except_tab
_GCC_except_table4:
LLSDA2421:
	.byte	0xff
	.byte	0xff
	.byte	0x1
	.uleb128 LLSDACSE2421-LLSDACSB2421
LLSDACSB2421:
	.uleb128 LEHB14-LFB2421
	.uleb128 LEHE14-LEHB14
	.uleb128 0
	.uleb128 0
	.uleb128 LEHB15-LFB2421
	.uleb128 LEHE15-LEHB15
	.uleb128 L64-LFB2421
	.uleb128 0
	.uleb128 LEHB16-LFB2421
	.uleb128 LEHE16-LEHB16
	.uleb128 0
	.uleb128 0
LLSDACSE2421:
	.text
	.align	2
	.globl __ZNSt12_Vector_baseISt6vectorIiSaIiEESaIS2_EE12_Vector_implC1Ev
	.weak_definition __ZNSt12_Vector_baseISt6vectorIiSaIiEESaIS2_EE12_Vector_implC1Ev
__ZNSt12_Vector_baseISt6vectorIiSaIiEESaIS2_EE12_Vector_implC1Ev:
LFB2687:
	stp	x29, x30, [sp, -32]!
LCFI40:
	mov	x29, sp
	str	x0, [sp, 24]
	ldr	x0, [sp, 24]
	bl	__ZNSaISt6vectorIiSaIiEEEC2Ev
	ldr	x0, [sp, 24]
	bl	__ZNSt12_Vector_baseISt6vectorIiSaIiEESaIS2_EE17_Vector_impl_dataC2Ev
	nop
	ldp	x29, x30, [sp], 32
LCFI41:
	ret
LFE2687:
	.align	2
	.globl __ZNSaISt6vectorIiSaIiEEED2Ev
	.weak_definition __ZNSaISt6vectorIiSaIiEEED2Ev
__ZNSaISt6vectorIiSaIiEEED2Ev:
LFB2689:
	stp	x29, x30, [sp, -32]!
LCFI42:
	mov	x29, sp
	str	x0, [sp, 24]
	ldr	x0, [sp, 24]
	bl	__ZN9__gnu_cxx13new_allocatorISt6vectorIiSaIiEEED2Ev
	nop
	ldp	x29, x30, [sp], 32
LCFI43:
	ret
LFE2689:
	.align	2
	.globl __ZNSaISt6vectorIiSaIiEEED1Ev
	.weak_definition __ZNSaISt6vectorIiSaIiEEED1Ev
__ZNSaISt6vectorIiSaIiEEED1Ev:
LFB2690:
	stp	x29, x30, [sp, -32]!
LCFI44:
	mov	x29, sp
	str	x0, [sp, 24]
	ldr	x0, [sp, 24]
	bl	__ZN9__gnu_cxx13new_allocatorISt6vectorIiSaIiEEED2Ev
	nop
	ldp	x29, x30, [sp], 32
LCFI45:
	ret
LFE2690:
	.align	2
	.globl __ZNSt12_Vector_baseISt6vectorIiSaIiEESaIS2_EED2Ev
	.weak_definition __ZNSt12_Vector_baseISt6vectorIiSaIiEESaIS2_EED2Ev
__ZNSt12_Vector_baseISt6vectorIiSaIiEESaIS2_EED2Ev:
LFB2692:
	stp	x29, x30, [sp, -32]!
LCFI46:
	mov	x29, sp
	str	x0, [sp, 24]
	ldr	x0, [sp, 24]
	ldr	x3, [x0]
	ldr	x0, [sp, 24]
	ldr	x1, [x0, 16]
	ldr	x0, [sp, 24]
	ldr	x0, [x0]
	sub	x0, x1, x0
	asr	x1, x0, 3
	mov	x0, -6148914691236517206
	movk	x0, 0xaaab, lsl 0
	mul	x0, x1, x0
	mov	x2, x0
	mov	x1, x3
	ldr	x0, [sp, 24]
	bl	__ZNSt12_Vector_baseISt6vectorIiSaIiEESaIS2_EE13_M_deallocateEPS2_m
	ldr	x0, [sp, 24]
	bl	__ZNSt12_Vector_baseISt6vectorIiSaIiEESaIS2_EE12_Vector_implD1Ev
	nop
	ldp	x29, x30, [sp], 32
LCFI47:
	ret
LFE2692:
	.section __DATA,__gcc_except_tab
_GCC_except_table5:
LLSDA2692:
	.byte	0xff
	.byte	0xff
	.byte	0x1
	.uleb128 LLSDACSE2692-LLSDACSB2692
LLSDACSB2692:
LLSDACSE2692:
	.text
	.align	2
	.globl __ZNSt6vectorIS_IiSaIiEESaIS1_EED1Ev
	.weak_definition __ZNSt6vectorIS_IiSaIiEESaIS1_EED1Ev
__ZNSt6vectorIS_IiSaIiEESaIS1_EED1Ev:
LFB2696:
	stp	x29, x30, [sp, -48]!
LCFI48:
	mov	x29, sp
	stp	x19, x20, [sp, 16]
LCFI49:
	str	x0, [sp, 40]
	ldr	x0, [sp, 40]
	ldr	x19, [x0]
	ldr	x0, [sp, 40]
	ldr	x20, [x0, 8]
	ldr	x0, [sp, 40]
	bl	__ZNSt12_Vector_baseISt6vectorIiSaIiEESaIS2_EE19_M_get_Tp_allocatorEv
	mov	x2, x0
	mov	x1, x20
	mov	x0, x19
	bl	__ZSt8_DestroyIPSt6vectorIiSaIiEES2_EvT_S4_RSaIT0_E
	ldr	x0, [sp, 40]
	bl	__ZNSt12_Vector_baseISt6vectorIiSaIiEESaIS2_EED2Ev
	nop
	ldp	x19, x20, [sp, 16]
	ldp	x29, x30, [sp], 48
LCFI50:
	ret
LFE2696:
	.section __DATA,__gcc_except_tab
_GCC_except_table6:
LLSDA2696:
	.byte	0xff
	.byte	0xff
	.byte	0x1
	.uleb128 LLSDACSE2696-LLSDACSB2696
LLSDACSB2696:
LLSDACSE2696:
	.text
	.align	2
	.globl __ZNSt6vectorIS_IiSaIiEESaIS1_EE6resizeEm
	.weak_definition __ZNSt6vectorIS_IiSaIiEESaIS1_EE6resizeEm
__ZNSt6vectorIS_IiSaIiEESaIS1_EE6resizeEm:
LFB2697:
	stp	x29, x30, [sp, -32]!
LCFI51:
	mov	x29, sp
	str	x0, [sp, 24]
	str	x1, [sp, 16]
	ldr	x0, [sp, 24]
	bl	__ZNKSt6vectorIS_IiSaIiEESaIS1_EE4sizeEv
	mov	x1, x0
	ldr	x0, [sp, 16]
	cmp	x0, x1
	cset	w0, hi
	and	w0, w0, 255
	cmp	w0, 0
	beq	L72
	ldr	x0, [sp, 24]
	bl	__ZNKSt6vectorIS_IiSaIiEESaIS1_EE4sizeEv
	mov	x1, x0
	ldr	x0, [sp, 16]
	sub	x0, x0, x1
	mov	x1, x0
	ldr	x0, [sp, 24]
	bl	__ZNSt6vectorIS_IiSaIiEESaIS1_EE17_M_default_appendEm
	b	L74
L72:
	ldr	x0, [sp, 24]
	bl	__ZNKSt6vectorIS_IiSaIiEESaIS1_EE4sizeEv
	mov	x1, x0
	ldr	x0, [sp, 16]
	cmp	x0, x1
	cset	w0, cc
	and	w0, w0, 255
	cmp	w0, 0
	beq	L74
	ldr	x0, [sp, 24]
	ldr	x2, [x0]
	ldr	x1, [sp, 16]
	mov	x0, x1
	lsl	x0, x0, 1
	add	x0, x0, x1
	lsl	x0, x0, 3
	add	x0, x2, x0
	mov	x1, x0
	ldr	x0, [sp, 24]
	bl	__ZNSt6vectorIS_IiSaIiEESaIS1_EE15_M_erase_at_endEPS1_
L74:
	nop
	ldp	x29, x30, [sp], 32
LCFI52:
	ret
LFE2697:
	.align	2
	.globl __ZNSt6vectorIS_IiSaIiEESaIS1_EEixEm
	.weak_definition __ZNSt6vectorIS_IiSaIiEESaIS1_EEixEm
__ZNSt6vectorIS_IiSaIiEESaIS1_EEixEm:
LFB2698:
	sub	sp, sp, #16
LCFI53:
	str	x0, [sp, 8]
	str	x1, [sp]
	ldr	x0, [sp, 8]
	ldr	x2, [x0]
	ldr	x1, [sp]
	mov	x0, x1
	lsl	x0, x0, 1
	add	x0, x0, x1
	lsl	x0, x0, 3
	add	x0, x2, x0
	add	sp, sp, 16
LCFI54:
	ret
LFE2698:
	.align	2
	.globl __ZNSt6vectorIiSaIiEE6resizeEm
	.weak_definition __ZNSt6vectorIiSaIiEE6resizeEm
__ZNSt6vectorIiSaIiEE6resizeEm:
LFB2699:
	stp	x29, x30, [sp, -32]!
LCFI55:
	mov	x29, sp
	str	x0, [sp, 24]
	str	x1, [sp, 16]
	ldr	x0, [sp, 24]
	bl	__ZNKSt6vectorIiSaIiEE4sizeEv
	mov	x1, x0
	ldr	x0, [sp, 16]
	cmp	x0, x1
	cset	w0, hi
	and	w0, w0, 255
	cmp	w0, 0
	beq	L78
	ldr	x0, [sp, 24]
	bl	__ZNKSt6vectorIiSaIiEE4sizeEv
	mov	x1, x0
	ldr	x0, [sp, 16]
	sub	x0, x0, x1
	mov	x1, x0
	ldr	x0, [sp, 24]
	bl	__ZNSt6vectorIiSaIiEE17_M_default_appendEm
	b	L80
L78:
	ldr	x0, [sp, 24]
	bl	__ZNKSt6vectorIiSaIiEE4sizeEv
	mov	x1, x0
	ldr	x0, [sp, 16]
	cmp	x0, x1
	cset	w0, cc
	and	w0, w0, 255
	cmp	w0, 0
	beq	L80
	ldr	x0, [sp, 24]
	ldr	x1, [x0]
	ldr	x0, [sp, 16]
	lsl	x0, x0, 2
	add	x0, x1, x0
	mov	x1, x0
	ldr	x0, [sp, 24]
	bl	__ZNSt6vectorIiSaIiEE15_M_erase_at_endEPi
L80:
	nop
	ldp	x29, x30, [sp], 32
LCFI56:
	ret
LFE2699:
	.align	2
	.globl __ZNSt5dequeIiSaIiEEC1Ev
	.weak_definition __ZNSt5dequeIiSaIiEEC1Ev
__ZNSt5dequeIiSaIiEEC1Ev:
LFB2703:
	stp	x29, x30, [sp, -32]!
LCFI57:
	mov	x29, sp
	str	x0, [sp, 24]
	ldr	x0, [sp, 24]
	bl	__ZNSt11_Deque_baseIiSaIiEEC2Ev
	nop
	ldp	x29, x30, [sp], 32
LCFI58:
	ret
LFE2703:
	.align	2
	.globl __ZNSt5queueIiSt5dequeIiSaIiEEEC1IS2_vEEv
	.weak_definition __ZNSt5queueIiSt5dequeIiSaIiEEEC1IS2_vEEv
__ZNSt5queueIiSt5dequeIiSaIiEEEC1IS2_vEEv:
LFB2705:
	stp	x29, x30, [sp, -32]!
LCFI59:
	mov	x29, sp
	str	x0, [sp, 24]
	ldr	x0, [sp, 24]
	movi	v0.4s, 0
	stp	q0, q0, [x0]
	stp	q0, q0, [x0, 32]
	str	q0, [x0, 64]
	ldr	x0, [sp, 24]
	bl	__ZNSt5dequeIiSaIiEEC1Ev
	nop
	ldp	x29, x30, [sp], 32
LCFI60:
	ret
LFE2705:
	.align	2
	.globl __ZNSt5dequeIiSaIiEED1Ev
	.weak_definition __ZNSt5dequeIiSaIiEED1Ev
__ZNSt5dequeIiSaIiEED1Ev:
LFB2708:
	stp	x29, x30, [sp, -96]!
LCFI61:
	mov	x29, sp
	str	x0, [sp, 24]
	add	x0, sp, 32
	mov	x8, x0
	ldr	x0, [sp, 24]
	bl	__ZNSt5dequeIiSaIiEE5beginEv
	add	x0, sp, 64
	mov	x8, x0
	ldr	x0, [sp, 24]
	bl	__ZNSt5dequeIiSaIiEE3endEv
	ldr	x0, [sp, 24]
	bl	__ZNSt11_Deque_baseIiSaIiEE19_M_get_Tp_allocatorEv
	mov	x2, x0
	add	x1, sp, 64
	add	x0, sp, 32
	mov	x3, x2
	mov	x2, x1
	mov	x1, x0
	ldr	x0, [sp, 24]
	bl	__ZNSt5dequeIiSaIiEE15_M_destroy_dataESt15_Deque_iteratorIiRiPiES5_RKS0_
	ldr	x0, [sp, 24]
	bl	__ZNSt11_Deque_baseIiSaIiEED2Ev
	nop
	ldp	x29, x30, [sp], 96
LCFI62:
	ret
LFE2708:
	.section __DATA,__gcc_except_tab
_GCC_except_table7:
LLSDA2708:
	.byte	0xff
	.byte	0xff
	.byte	0x1
	.uleb128 LLSDACSE2708-LLSDACSB2708
LLSDACSB2708:
LLSDACSE2708:
	.text
	.align	2
	.globl __ZNSt5queueIiSt5dequeIiSaIiEEE4pushERKi
	.weak_definition __ZNSt5queueIiSt5dequeIiSaIiEEE4pushERKi
__ZNSt5queueIiSt5dequeIiSaIiEEE4pushERKi:
LFB2709:
	stp	x29, x30, [sp, -32]!
LCFI63:
	mov	x29, sp
	str	x0, [sp, 24]
	str	x1, [sp, 16]
	ldr	x0, [sp, 24]
	ldr	x1, [sp, 16]
	bl	__ZNSt5dequeIiSaIiEE9push_backERKi
	nop
	ldp	x29, x30, [sp], 32
LCFI64:
	ret
LFE2709:
	.align	2
	.globl __ZNKSt5queueIiSt5dequeIiSaIiEEE5emptyEv
	.weak_definition __ZNKSt5queueIiSt5dequeIiSaIiEEE5emptyEv
__ZNKSt5queueIiSt5dequeIiSaIiEEE5emptyEv:
LFB2710:
	stp	x29, x30, [sp, -32]!
LCFI65:
	mov	x29, sp
	str	x0, [sp, 24]
	ldr	x0, [sp, 24]
	bl	__ZNKSt5dequeIiSaIiEE5emptyEv
	and	w0, w0, 255
	ldp	x29, x30, [sp], 32
LCFI66:
	ret
LFE2710:
	.align	2
	.globl __ZNSt5queueIiSt5dequeIiSaIiEEE5frontEv
	.weak_definition __ZNSt5queueIiSt5dequeIiSaIiEEE5frontEv
__ZNSt5queueIiSt5dequeIiSaIiEEE5frontEv:
LFB2711:
	stp	x29, x30, [sp, -32]!
LCFI67:
	mov	x29, sp
	str	x0, [sp, 24]
	ldr	x0, [sp, 24]
	bl	__ZNSt5dequeIiSaIiEE5frontEv
	ldp	x29, x30, [sp], 32
LCFI68:
	ret
LFE2711:
	.align	2
	.globl __ZNSt6vectorIiSaIiEEixEm
	.weak_definition __ZNSt6vectorIiSaIiEEixEm
__ZNSt6vectorIiSaIiEEixEm:
LFB2712:
	sub	sp, sp, #16
LCFI69:
	str	x0, [sp, 8]
	str	x1, [sp]
	ldr	x0, [sp, 8]
	ldr	x1, [x0]
	ldr	x0, [sp]
	lsl	x0, x0, 2
	add	x0, x1, x0
	add	sp, sp, 16
LCFI70:
	ret
LFE2712:
	.align	2
	.globl __ZNSt5queueIiSt5dequeIiSaIiEEE3popEv
	.weak_definition __ZNSt5queueIiSt5dequeIiSaIiEEE3popEv
__ZNSt5queueIiSt5dequeIiSaIiEEE3popEv:
LFB2713:
	stp	x29, x30, [sp, -32]!
LCFI71:
	mov	x29, sp
	str	x0, [sp, 24]
	ldr	x0, [sp, 24]
	bl	__ZNSt5dequeIiSaIiEE9pop_frontEv
	nop
	ldp	x29, x30, [sp], 32
LCFI72:
	ret
LFE2713:
	.align	2
	.globl __ZNSt6vectorIS_IiSaIiEESaIS1_EEC1ERKS3_
	.weak_definition __ZNSt6vectorIS_IiSaIiEESaIS1_EEC1ERKS3_
__ZNSt6vectorIS_IiSaIiEESaIS1_EEC1ERKS3_:
LFB2716:
	stp	x29, x30, [sp, -80]!
LCFI73:
	mov	x29, sp
	stp	x19, x20, [sp, 16]
	str	x21, [sp, 32]
LCFI74:
	str	x0, [sp, 56]
	str	x1, [sp, 48]
	ldr	x19, [sp, 56]
	ldr	x0, [sp, 48]
	bl	__ZNKSt6vectorIS_IiSaIiEESaIS1_EE4sizeEv
	mov	x20, x0
	ldr	x0, [sp, 48]
	bl	__ZNKSt12_Vector_baseISt6vectorIiSaIiEESaIS2_EE19_M_get_Tp_allocatorEv
	mov	x1, x0
	add	x0, sp, 72
	mov	x8, x0
	mov	x0, x1
LEHB17:
	bl	__ZN9__gnu_cxx14__alloc_traitsISaISt6vectorIiSaIiEEES3_E17_S_select_on_copyERKS4_
LEHE17:
	add	x0, sp, 72
	mov	x2, x0
	mov	x1, x20
	mov	x0, x19
LEHB18:
	bl	__ZNSt12_Vector_baseISt6vectorIiSaIiEESaIS2_EEC2EmRKS3_
LEHE18:
	add	x0, sp, 72
	bl	__ZNSaISt6vectorIiSaIiEEED1Ev
	ldr	x0, [sp, 48]
	bl	__ZNKSt6vectorIS_IiSaIiEESaIS1_EE5beginEv
	mov	x20, x0
	ldr	x0, [sp, 48]
	bl	__ZNKSt6vectorIS_IiSaIiEESaIS1_EE3endEv
	mov	x21, x0
	ldr	x0, [sp, 56]
	ldr	x19, [x0]
	ldr	x0, [sp, 56]
	bl	__ZNSt12_Vector_baseISt6vectorIiSaIiEESaIS2_EE19_M_get_Tp_allocatorEv
	mov	x3, x0
	mov	x2, x19
	mov	x1, x21
	mov	x0, x20
LEHB19:
	bl	__ZSt22__uninitialized_copy_aIN9__gnu_cxx17__normal_iteratorIPKSt6vectorIiSaIiEES2_IS4_SaIS4_EEEEPS4_S4_ET0_T_SC_SB_RSaIT1_E
LEHE19:
	mov	x1, x0
	ldr	x0, [sp, 56]
	str	x1, [x0, 8]
	b	L97
L95:
	mov	x19, x0
	add	x0, sp, 72
	bl	__ZNSaISt6vectorIiSaIiEEED1Ev
	mov	x0, x19
LEHB20:
	bl	__Unwind_Resume
L96:
	mov	x19, x0
	ldr	x0, [sp, 56]
	bl	__ZNSt12_Vector_baseISt6vectorIiSaIiEESaIS2_EED2Ev
	mov	x0, x19
	bl	__Unwind_Resume
LEHE20:
L97:
	ldp	x19, x20, [sp, 16]
	ldr	x21, [sp, 32]
	ldp	x29, x30, [sp], 80
LCFI75:
	ret
LFE2716:
	.section __DATA,__gcc_except_tab
_GCC_except_table8:
LLSDA2716:
	.byte	0xff
	.byte	0xff
	.byte	0x1
	.uleb128 LLSDACSE2716-LLSDACSB2716
LLSDACSB2716:
	.uleb128 LEHB17-LFB2716
	.uleb128 LEHE17-LEHB17
	.uleb128 0
	.uleb128 0
	.uleb128 LEHB18-LFB2716
	.uleb128 LEHE18-LEHB18
	.uleb128 L95-LFB2716
	.uleb128 0
	.uleb128 LEHB19-LFB2716
	.uleb128 LEHE19-LEHB19
	.uleb128 L96-LFB2716
	.uleb128 0
	.uleb128 LEHB20-LFB2716
	.uleb128 LEHE20-LEHB20
	.uleb128 0
	.uleb128 0
LLSDACSE2716:
	.text
	.align	2
	.globl __ZNSaISt6vectorIiSaIiEEEC2Ev
	.weak_definition __ZNSaISt6vectorIiSaIiEEEC2Ev
__ZNSaISt6vectorIiSaIiEEEC2Ev:
LFB2798:
	stp	x29, x30, [sp, -32]!
LCFI76:
	mov	x29, sp
	str	x0, [sp, 24]
	ldr	x0, [sp, 24]
	bl	__ZN9__gnu_cxx13new_allocatorISt6vectorIiSaIiEEEC2Ev
	nop
	ldp	x29, x30, [sp], 32
LCFI77:
	ret
LFE2798:
	.align	2
	.globl __ZNSt12_Vector_baseISt6vectorIiSaIiEESaIS2_EE17_Vector_impl_dataC2Ev
	.weak_definition __ZNSt12_Vector_baseISt6vectorIiSaIiEESaIS2_EE17_Vector_impl_dataC2Ev
__ZNSt12_Vector_baseISt6vectorIiSaIiEESaIS2_EE17_Vector_impl_dataC2Ev:
LFB2801:
	sub	sp, sp, #16
LCFI78:
	str	x0, [sp, 8]
	ldr	x0, [sp, 8]
	str	xzr, [x0]
	ldr	x0, [sp, 8]
	str	xzr, [x0, 8]
	ldr	x0, [sp, 8]
	str	xzr, [x0, 16]
	nop
	add	sp, sp, 16
LCFI79:
	ret
LFE2801:
	.align	2
	.globl __ZN9__gnu_cxx13new_allocatorISt6vectorIiSaIiEEED2Ev
	.weak_definition __ZN9__gnu_cxx13new_allocatorISt6vectorIiSaIiEEED2Ev
__ZN9__gnu_cxx13new_allocatorISt6vectorIiSaIiEEED2Ev:
LFB2804:
	sub	sp, sp, #16
LCFI80:
	str	x0, [sp, 8]
	nop
	add	sp, sp, 16
LCFI81:
	ret
LFE2804:
	.align	2
	.globl __ZNSt12_Vector_baseISt6vectorIiSaIiEESaIS2_EE13_M_deallocateEPS2_m
	.weak_definition __ZNSt12_Vector_baseISt6vectorIiSaIiEESaIS2_EE13_M_deallocateEPS2_m
__ZNSt12_Vector_baseISt6vectorIiSaIiEESaIS2_EE13_M_deallocateEPS2_m:
LFB2806:
	stp	x29, x30, [sp, -48]!
LCFI82:
	mov	x29, sp
	str	x0, [sp, 40]
	str	x1, [sp, 32]
	str	x2, [sp, 24]
	ldr	x0, [sp, 32]
	cmp	x0, 0
	beq	L103
	ldr	x0, [sp, 40]
	ldr	x2, [sp, 24]
	ldr	x1, [sp, 32]
	bl	__ZNSt16allocator_traitsISaISt6vectorIiSaIiEEEE10deallocateERS3_PS2_m
L103:
	nop
	ldp	x29, x30, [sp], 48
LCFI83:
	ret
LFE2806:
	.align	2
	.globl __ZNSt12_Vector_baseISt6vectorIiSaIiEESaIS2_EE19_M_get_Tp_allocatorEv
	.weak_definition __ZNSt12_Vector_baseISt6vectorIiSaIiEESaIS2_EE19_M_get_Tp_allocatorEv
__ZNSt12_Vector_baseISt6vectorIiSaIiEESaIS2_EE19_M_get_Tp_allocatorEv:
LFB2807:
	sub	sp, sp, #16
LCFI84:
	str	x0, [sp, 8]
	ldr	x0, [sp, 8]
	add	sp, sp, 16
LCFI85:
	ret
LFE2807:
	.align	2
	.globl __ZSt8_DestroyIPSt6vectorIiSaIiEES2_EvT_S4_RSaIT0_E
	.weak_definition __ZSt8_DestroyIPSt6vectorIiSaIiEES2_EvT_S4_RSaIT0_E
__ZSt8_DestroyIPSt6vectorIiSaIiEES2_EvT_S4_RSaIT0_E:
LFB2808:
	stp	x29, x30, [sp, -48]!
LCFI86:
	mov	x29, sp
	str	x0, [sp, 40]
	str	x1, [sp, 32]
	str	x2, [sp, 24]
	ldr	x1, [sp, 32]
	ldr	x0, [sp, 40]
	bl	__ZSt8_DestroyIPSt6vectorIiSaIiEEEvT_S4_
	nop
	ldp	x29, x30, [sp], 48
LCFI87:
	ret
LFE2808:
	.align	2
	.globl __ZNKSt6vectorIS_IiSaIiEESaIS1_EE4sizeEv
	.weak_definition __ZNKSt6vectorIS_IiSaIiEESaIS1_EE4sizeEv
__ZNKSt6vectorIS_IiSaIiEESaIS1_EE4sizeEv:
LFB2809:
	sub	sp, sp, #16
LCFI88:
	str	x0, [sp, 8]
	ldr	x0, [sp, 8]
	ldr	x1, [x0, 8]
	ldr	x0, [sp, 8]
	ldr	x0, [x0]
	sub	x0, x1, x0
	asr	x1, x0, 3
	mov	x0, -6148914691236517206
	movk	x0, 0xaaab, lsl 0
	mul	x0, x1, x0
	add	sp, sp, 16
LCFI89:
	ret
LFE2809:
	.cstring
	.align	3
lC1:
	.ascii "vector::_M_default_append\0"
	.text
	.align	2
	.globl __ZNSt6vectorIS_IiSaIiEESaIS1_EE17_M_default_appendEm
	.weak_definition __ZNSt6vectorIS_IiSaIiEESaIS1_EE17_M_default_appendEm
__ZNSt6vectorIS_IiSaIiEESaIS1_EE17_M_default_appendEm:
LFB2810:
	stp	x29, x30, [sp, -80]!
LCFI90:
	mov	x29, sp
	stp	x19, x20, [sp, 16]
LCFI91:
	str	x0, [sp, 40]
	str	x1, [sp, 32]
	ldr	x0, [sp, 32]
	cmp	x0, 0
	beq	L120
	ldr	x0, [sp, 40]
	bl	__ZNKSt6vectorIS_IiSaIiEESaIS1_EE4sizeEv
	str	x0, [sp, 72]
	ldr	x0, [sp, 40]
	ldr	x1, [x0, 16]
	ldr	x0, [sp, 40]
	ldr	x0, [x0, 8]
	sub	x0, x1, x0
	asr	x1, x0, 3
	mov	x0, -6148914691236517206
	movk	x0, 0xaaab, lsl 0
	mul	x0, x1, x0
	str	x0, [sp, 64]
	ldr	x0, [sp, 40]
	bl	__ZNKSt6vectorIS_IiSaIiEESaIS1_EE8max_sizeEv
	mov	x1, x0
	ldr	x0, [sp, 72]
	cmp	x0, x1
	bhi	L111
	ldr	x0, [sp, 40]
	bl	__ZNKSt6vectorIS_IiSaIiEESaIS1_EE8max_sizeEv
	mov	x1, x0
	ldr	x0, [sp, 72]
	sub	x0, x1, x0
	ldr	x1, [sp, 64]
	cmp	x1, x0
	bls	L112
L111:
	mov	w0, 1
	b	L113
L112:
	mov	w0, 0
L113:
	cmp	w0, 0
	ldr	x1, [sp, 64]
	ldr	x0, [sp, 32]
	cmp	x1, x0
	bcc	L115
	ldr	x0, [sp, 40]
	ldr	x19, [x0, 8]
	ldr	x0, [sp, 40]
	bl	__ZNSt12_Vector_baseISt6vectorIiSaIiEESaIS2_EE19_M_get_Tp_allocatorEv
	mov	x2, x0
	ldr	x1, [sp, 32]
	mov	x0, x19
LEHB21:
	bl	__ZSt27__uninitialized_default_n_aIPSt6vectorIiSaIiEEmS2_ET_S4_T0_RSaIT1_E
	mov	x1, x0
	ldr	x0, [sp, 40]
	str	x1, [x0, 8]
	b	L120
L115:
	adrp	x0, lC1@GOTPAGE
	ldr	x2, [x0, lC1@GOTPAGEOFF];momd
	ldr	x1, [sp, 32]
	ldr	x0, [sp, 40]
	bl	__ZNKSt6vectorIS_IiSaIiEESaIS1_EE12_M_check_lenEmPKc
	str	x0, [sp, 56]
	ldr	x0, [sp, 40]
	ldr	x1, [sp, 56]
	bl	__ZNSt12_Vector_baseISt6vectorIiSaIiEESaIS2_EE11_M_allocateEm
LEHE21:
	str	x0, [sp, 48]
	ldr	x1, [sp, 72]
	mov	x0, x1
	lsl	x0, x0, 1
	add	x0, x0, x1
	lsl	x0, x0, 3
	mov	x1, x0
	ldr	x0, [sp, 48]
	add	x19, x0, x1
	ldr	x0, [sp, 40]
	bl	__ZNSt12_Vector_baseISt6vectorIiSaIiEESaIS2_EE19_M_get_Tp_allocatorEv
	mov	x2, x0
	ldr	x1, [sp, 32]
	mov	x0, x19
LEHB22:
	bl	__ZSt27__uninitialized_default_n_aIPSt6vectorIiSaIiEEmS2_ET_S4_T0_RSaIT1_E
LEHE22:
	ldr	x0, [sp, 40]
	ldr	x19, [x0]
	ldr	x0, [sp, 40]
	ldr	x20, [x0, 8]
	ldr	x0, [sp, 40]
	bl	__ZNSt12_Vector_baseISt6vectorIiSaIiEESaIS2_EE19_M_get_Tp_allocatorEv
	mov	x3, x0
	ldr	x2, [sp, 48]
	mov	x1, x20
	mov	x0, x19
	bl	__ZNSt6vectorIS_IiSaIiEESaIS1_EE11_S_relocateEPS1_S4_S4_RS2_
	ldr	x3, [sp, 40]
	ldr	x0, [sp, 40]
	ldr	x4, [x0]
	ldr	x0, [sp, 40]
	ldr	x1, [x0, 16]
	ldr	x0, [sp, 40]
	ldr	x0, [x0]
	sub	x0, x1, x0
	asr	x1, x0, 3
	mov	x0, -6148914691236517206
	movk	x0, 0xaaab, lsl 0
	mul	x0, x1, x0
	mov	x2, x0
	mov	x1, x4
	mov	x0, x3
LEHB23:
	bl	__ZNSt12_Vector_baseISt6vectorIiSaIiEESaIS2_EE13_M_deallocateEPS2_m
LEHE23:
	ldr	x0, [sp, 40]
	ldr	x1, [sp, 48]
	str	x1, [x0]
	ldr	x1, [sp, 72]
	ldr	x0, [sp, 32]
	add	x1, x1, x0
	mov	x0, x1
	lsl	x0, x0, 1
	add	x0, x0, x1
	lsl	x0, x0, 3
	mov	x1, x0
	ldr	x0, [sp, 48]
	add	x1, x0, x1
	ldr	x0, [sp, 40]
	str	x1, [x0, 8]
	ldr	x1, [sp, 56]
	mov	x0, x1
	lsl	x0, x0, 1
	add	x0, x0, x1
	lsl	x0, x0, 3
	mov	x1, x0
	ldr	x0, [sp, 48]
	add	x1, x0, x1
	ldr	x0, [sp, 40]
	str	x1, [x0, 16]
	b	L120
L118:
	bl	___cxa_begin_catch
	ldr	x0, [sp, 40]
	ldr	x2, [sp, 56]
	ldr	x1, [sp, 48]
LEHB24:
	bl	__ZNSt12_Vector_baseISt6vectorIiSaIiEESaIS2_EE13_M_deallocateEPS2_m
	bl	___cxa_rethrow
LEHE24:
L119:
	mov	x19, x0
	bl	___cxa_end_catch
	mov	x0, x19
LEHB25:
	bl	__Unwind_Resume
LEHE25:
L120:
	nop
	ldp	x19, x20, [sp, 16]
	ldp	x29, x30, [sp], 80
LCFI92:
	ret
LFE2810:
	.section __DATA,__gcc_except_tab
_GCC_except_table9:
	.align	3
LLSDA2810:
	.byte	0xff
	.byte	0
	.uleb128 LLSDATT2810-LLSDATTD2810
LLSDATTD2810:
	.byte	0x1
	.uleb128 LLSDACSE2810-LLSDACSB2810
LLSDACSB2810:
	.uleb128 LEHB21-LFB2810
	.uleb128 LEHE21-LEHB21
	.uleb128 0
	.uleb128 0
	.uleb128 LEHB22-LFB2810
	.uleb128 LEHE22-LEHB22
	.uleb128 L118-LFB2810
	.uleb128 0x1
	.uleb128 LEHB23-LFB2810
	.uleb128 LEHE23-LEHB23
	.uleb128 0
	.uleb128 0
	.uleb128 LEHB24-LFB2810
	.uleb128 LEHE24-LEHB24
	.uleb128 L119-LFB2810
	.uleb128 0
	.uleb128 LEHB25-LFB2810
	.uleb128 LEHE25-LEHB25
	.uleb128 0
	.uleb128 0
LLSDACSE2810:
	.byte	0x1
	.byte	0
	.align	3
	.xword	0
LLSDATT2810:
	.text
	.align	2
	.globl __ZNSt6vectorIS_IiSaIiEESaIS1_EE15_M_erase_at_endEPS1_
	.weak_definition __ZNSt6vectorIS_IiSaIiEESaIS1_EE15_M_erase_at_endEPS1_
__ZNSt6vectorIS_IiSaIiEESaIS1_EE15_M_erase_at_endEPS1_:
LFB2815:
	stp	x29, x30, [sp, -64]!
LCFI93:
	mov	x29, sp
	str	x19, [sp, 16]
LCFI94:
	str	x0, [sp, 40]
	str	x1, [sp, 32]
	ldr	x0, [sp, 40]
	ldr	x1, [x0, 8]
	ldr	x0, [sp, 32]
	sub	x0, x1, x0
	asr	x1, x0, 3
	mov	x0, -6148914691236517206
	movk	x0, 0xaaab, lsl 0
	mul	x0, x1, x0
	str	x0, [sp, 56]
	ldr	x0, [sp, 56]
	cmp	x0, 0
	beq	L123
	ldr	x0, [sp, 40]
	ldr	x19, [x0, 8]
	ldr	x0, [sp, 40]
	bl	__ZNSt12_Vector_baseISt6vectorIiSaIiEESaIS2_EE19_M_get_Tp_allocatorEv
	mov	x2, x0
	mov	x1, x19
	ldr	x0, [sp, 32]
	bl	__ZSt8_DestroyIPSt6vectorIiSaIiEES2_EvT_S4_RSaIT0_E
	ldr	x0, [sp, 40]
	ldr	x1, [sp, 32]
	str	x1, [x0, 8]
L123:
	nop
	ldr	x19, [sp, 16]
	ldp	x29, x30, [sp], 64
LCFI95:
	ret
LFE2815:
	.section __DATA,__gcc_except_tab
_GCC_except_table10:
LLSDA2815:
	.byte	0xff
	.byte	0xff
	.byte	0x1
	.uleb128 LLSDACSE2815-LLSDACSB2815
LLSDACSB2815:
LLSDACSE2815:
	.text
	.align	2
	.globl __ZNKSt6vectorIiSaIiEE4sizeEv
	.weak_definition __ZNKSt6vectorIiSaIiEE4sizeEv
__ZNKSt6vectorIiSaIiEE4sizeEv:
LFB2816:
	sub	sp, sp, #16
LCFI96:
	str	x0, [sp, 8]
	ldr	x0, [sp, 8]
	ldr	x1, [x0, 8]
	ldr	x0, [sp, 8]
	ldr	x0, [x0]
	sub	x0, x1, x0
	asr	x0, x0, 2
	add	sp, sp, 16
LCFI97:
	ret
LFE2816:
	.align	2
	.globl __ZNSt6vectorIiSaIiEE17_M_default_appendEm
	.weak_definition __ZNSt6vectorIiSaIiEE17_M_default_appendEm
__ZNSt6vectorIiSaIiEE17_M_default_appendEm:
LFB2817:
	stp	x29, x30, [sp, -80]!
LCFI98:
	mov	x29, sp
	stp	x19, x20, [sp, 16]
LCFI99:
	str	x0, [sp, 40]
	str	x1, [sp, 32]
	ldr	x0, [sp, 32]
	cmp	x0, 0
	beq	L137
	ldr	x0, [sp, 40]
	bl	__ZNKSt6vectorIiSaIiEE4sizeEv
	str	x0, [sp, 72]
	ldr	x0, [sp, 40]
	ldr	x1, [x0, 16]
	ldr	x0, [sp, 40]
	ldr	x0, [x0, 8]
	sub	x0, x1, x0
	asr	x0, x0, 2
	str	x0, [sp, 64]
	ldr	x0, [sp, 40]
	bl	__ZNKSt6vectorIiSaIiEE8max_sizeEv
	mov	x1, x0
	ldr	x0, [sp, 72]
	cmp	x0, x1
	bhi	L128
	ldr	x0, [sp, 40]
	bl	__ZNKSt6vectorIiSaIiEE8max_sizeEv
	mov	x1, x0
	ldr	x0, [sp, 72]
	sub	x0, x1, x0
	ldr	x1, [sp, 64]
	cmp	x1, x0
	bls	L129
L128:
	mov	w0, 1
	b	L130
L129:
	mov	w0, 0
L130:
	cmp	w0, 0
	ldr	x1, [sp, 64]
	ldr	x0, [sp, 32]
	cmp	x1, x0
	bcc	L132
	ldr	x0, [sp, 40]
	ldr	x19, [x0, 8]
	ldr	x0, [sp, 40]
	bl	__ZNSt12_Vector_baseIiSaIiEE19_M_get_Tp_allocatorEv
	mov	x2, x0
	ldr	x1, [sp, 32]
	mov	x0, x19
LEHB26:
	bl	__ZSt27__uninitialized_default_n_aIPimiET_S1_T0_RSaIT1_E
	mov	x1, x0
	ldr	x0, [sp, 40]
	str	x1, [x0, 8]
	b	L137
L132:
	adrp	x0, lC1@GOTPAGE
	ldr	x2, [x0, lC1@GOTPAGEOFF];momd
	ldr	x1, [sp, 32]
	ldr	x0, [sp, 40]
	bl	__ZNKSt6vectorIiSaIiEE12_M_check_lenEmPKc
	str	x0, [sp, 56]
	ldr	x0, [sp, 40]
	ldr	x1, [sp, 56]
	bl	__ZNSt12_Vector_baseIiSaIiEE11_M_allocateEm
LEHE26:
	str	x0, [sp, 48]
	ldr	x0, [sp, 72]
	lsl	x0, x0, 2
	ldr	x1, [sp, 48]
	add	x19, x1, x0
	ldr	x0, [sp, 40]
	bl	__ZNSt12_Vector_baseIiSaIiEE19_M_get_Tp_allocatorEv
	mov	x2, x0
	ldr	x1, [sp, 32]
	mov	x0, x19
LEHB27:
	bl	__ZSt27__uninitialized_default_n_aIPimiET_S1_T0_RSaIT1_E
LEHE27:
	ldr	x0, [sp, 40]
	ldr	x19, [x0]
	ldr	x0, [sp, 40]
	ldr	x20, [x0, 8]
	ldr	x0, [sp, 40]
	bl	__ZNSt12_Vector_baseIiSaIiEE19_M_get_Tp_allocatorEv
	mov	x3, x0
	ldr	x2, [sp, 48]
	mov	x1, x20
	mov	x0, x19
	bl	__ZNSt6vectorIiSaIiEE11_S_relocateEPiS2_S2_RS0_
	ldr	x3, [sp, 40]
	ldr	x0, [sp, 40]
	ldr	x4, [x0]
	ldr	x0, [sp, 40]
	ldr	x1, [x0, 16]
	ldr	x0, [sp, 40]
	ldr	x0, [x0]
	sub	x0, x1, x0
	asr	x0, x0, 2
	mov	x2, x0
	mov	x1, x4
	mov	x0, x3
LEHB28:
	bl	__ZNSt12_Vector_baseIiSaIiEE13_M_deallocateEPim
LEHE28:
	ldr	x0, [sp, 40]
	ldr	x1, [sp, 48]
	str	x1, [x0]
	ldr	x1, [sp, 72]
	ldr	x0, [sp, 32]
	add	x0, x1, x0
	lsl	x0, x0, 2
	ldr	x1, [sp, 48]
	add	x1, x1, x0
	ldr	x0, [sp, 40]
	str	x1, [x0, 8]
	ldr	x0, [sp, 56]
	lsl	x0, x0, 2
	ldr	x1, [sp, 48]
	add	x1, x1, x0
	ldr	x0, [sp, 40]
	str	x1, [x0, 16]
	b	L137
L135:
	bl	___cxa_begin_catch
	ldr	x0, [sp, 40]
	ldr	x2, [sp, 56]
	ldr	x1, [sp, 48]
LEHB29:
	bl	__ZNSt12_Vector_baseIiSaIiEE13_M_deallocateEPim
	bl	___cxa_rethrow
LEHE29:
L136:
	mov	x19, x0
	bl	___cxa_end_catch
	mov	x0, x19
LEHB30:
	bl	__Unwind_Resume
LEHE30:
L137:
	nop
	ldp	x19, x20, [sp, 16]
	ldp	x29, x30, [sp], 80
LCFI100:
	ret
LFE2817:
	.section __DATA,__gcc_except_tab
_GCC_except_table11:
	.align	3
LLSDA2817:
	.byte	0xff
	.byte	0
	.uleb128 LLSDATT2817-LLSDATTD2817
LLSDATTD2817:
	.byte	0x1
	.uleb128 LLSDACSE2817-LLSDACSB2817
LLSDACSB2817:
	.uleb128 LEHB26-LFB2817
	.uleb128 LEHE26-LEHB26
	.uleb128 0
	.uleb128 0
	.uleb128 LEHB27-LFB2817
	.uleb128 LEHE27-LEHB27
	.uleb128 L135-LFB2817
	.uleb128 0x1
	.uleb128 LEHB28-LFB2817
	.uleb128 LEHE28-LEHB28
	.uleb128 0
	.uleb128 0
	.uleb128 LEHB29-LFB2817
	.uleb128 LEHE29-LEHB29
	.uleb128 L136-LFB2817
	.uleb128 0
	.uleb128 LEHB30-LFB2817
	.uleb128 LEHE30-LEHB30
	.uleb128 0
	.uleb128 0
LLSDACSE2817:
	.byte	0x1
	.byte	0
	.align	3
	.xword	0
LLSDATT2817:
	.text
	.align	2
	.globl __ZNSt6vectorIiSaIiEE15_M_erase_at_endEPi
	.weak_definition __ZNSt6vectorIiSaIiEE15_M_erase_at_endEPi
__ZNSt6vectorIiSaIiEE15_M_erase_at_endEPi:
LFB2822:
	stp	x29, x30, [sp, -64]!
LCFI101:
	mov	x29, sp
	str	x19, [sp, 16]
LCFI102:
	str	x0, [sp, 40]
	str	x1, [sp, 32]
	ldr	x0, [sp, 40]
	ldr	x1, [x0, 8]
	ldr	x0, [sp, 32]
	sub	x0, x1, x0
	asr	x0, x0, 2
	str	x0, [sp, 56]
	ldr	x0, [sp, 56]
	cmp	x0, 0
	beq	L140
	ldr	x0, [sp, 40]
	ldr	x19, [x0, 8]
	ldr	x0, [sp, 40]
	bl	__ZNSt12_Vector_baseIiSaIiEE19_M_get_Tp_allocatorEv
	mov	x2, x0
	mov	x1, x19
	ldr	x0, [sp, 32]
	bl	__ZSt8_DestroyIPiiEvT_S1_RSaIT0_E
	ldr	x0, [sp, 40]
	ldr	x1, [sp, 32]
	str	x1, [x0, 8]
L140:
	nop
	ldr	x19, [sp, 16]
	ldp	x29, x30, [sp], 64
LCFI103:
	ret
LFE2822:
	.section __DATA,__gcc_except_tab
_GCC_except_table12:
LLSDA2822:
	.byte	0xff
	.byte	0xff
	.byte	0x1
	.uleb128 LLSDACSE2822-LLSDACSB2822
LLSDACSB2822:
LLSDACSE2822:
	.text
	.align	2
	.globl __ZNSt11_Deque_baseIiSaIiEE11_Deque_implD1Ev
	.weak_definition __ZNSt11_Deque_baseIiSaIiEE11_Deque_implD1Ev
__ZNSt11_Deque_baseIiSaIiEE11_Deque_implD1Ev:
LFB2827:
	stp	x29, x30, [sp, -32]!
LCFI104:
	mov	x29, sp
	str	x0, [sp, 24]
	ldr	x0, [sp, 24]
	bl	__ZNSaIiED2Ev
	nop
	ldp	x29, x30, [sp], 32
LCFI105:
	ret
LFE2827:
	.align	2
	.globl __ZNSt11_Deque_baseIiSaIiEEC2Ev
	.weak_definition __ZNSt11_Deque_baseIiSaIiEEC2Ev
__ZNSt11_Deque_baseIiSaIiEEC2Ev:
LFB2828:
	stp	x29, x30, [sp, -48]!
LCFI106:
	mov	x29, sp
	str	x19, [sp, 16]
LCFI107:
	str	x0, [sp, 40]
	ldr	x0, [sp, 40]
	bl	__ZNSt11_Deque_baseIiSaIiEE11_Deque_implC1Ev
	mov	x1, 0
	ldr	x0, [sp, 40]
LEHB31:
	bl	__ZNSt11_Deque_baseIiSaIiEE17_M_initialize_mapEm
LEHE31:
	b	L145
L144:
	mov	x19, x0
	ldr	x0, [sp, 40]
	bl	__ZNSt11_Deque_baseIiSaIiEE11_Deque_implD1Ev
	mov	x0, x19
LEHB32:
	bl	__Unwind_Resume
LEHE32:
L145:
	ldr	x19, [sp, 16]
	ldp	x29, x30, [sp], 48
LCFI108:
	ret
LFE2828:
	.section __DATA,__gcc_except_tab
_GCC_except_table13:
LLSDA2828:
	.byte	0xff
	.byte	0xff
	.byte	0x1
	.uleb128 LLSDACSE2828-LLSDACSB2828
LLSDACSB2828:
	.uleb128 LEHB31-LFB2828
	.uleb128 LEHE31-LEHB31
	.uleb128 L144-LFB2828
	.uleb128 0
	.uleb128 LEHB32-LFB2828
	.uleb128 LEHE32-LEHB32
	.uleb128 0
	.uleb128 0
LLSDACSE2828:
	.text
	.align	2
	.globl __ZNSt11_Deque_baseIiSaIiEED2Ev
	.weak_definition __ZNSt11_Deque_baseIiSaIiEED2Ev
__ZNSt11_Deque_baseIiSaIiEED2Ev:
LFB2831:
	stp	x29, x30, [sp, -32]!
LCFI109:
	mov	x29, sp
	str	x0, [sp, 24]
	ldr	x0, [sp, 24]
	ldr	x0, [x0]
	cmp	x0, 0
	beq	L147
	ldr	x0, [sp, 24]
	ldr	x1, [x0, 40]
	ldr	x0, [sp, 24]
	ldr	x0, [x0, 72]
	add	x0, x0, 8
	mov	x2, x0
	ldr	x0, [sp, 24]
	bl	__ZNSt11_Deque_baseIiSaIiEE16_M_destroy_nodesEPPiS3_
	ldr	x0, [sp, 24]
	ldr	x1, [x0]
	ldr	x0, [sp, 24]
	ldr	x0, [x0, 8]
	mov	x2, x0
	ldr	x0, [sp, 24]
	bl	__ZNSt11_Deque_baseIiSaIiEE17_M_deallocate_mapEPPim
L147:
	ldr	x0, [sp, 24]
	bl	__ZNSt11_Deque_baseIiSaIiEE11_Deque_implD1Ev
	nop
	ldp	x29, x30, [sp], 32
LCFI110:
	ret
LFE2831:
	.align	2
	.globl __ZNSt5dequeIiSaIiEE5beginEv
	.weak_definition __ZNSt5dequeIiSaIiEE5beginEv
__ZNSt5dequeIiSaIiEE5beginEv:
LFB2833:
	stp	x29, x30, [sp, -48]!
LCFI111:
	mov	x29, sp
	str	x19, [sp, 16]
LCFI112:
	mov	x19, x8
	str	x0, [sp, 40]
	ldr	x0, [sp, 40]
	add	x0, x0, 16
	mov	x1, x0
	mov	x0, x19
	bl	__ZNSt15_Deque_iteratorIiRiPiEC1ERKS2_
	mov	x0, x19
	ldr	x19, [sp, 16]
	ldp	x29, x30, [sp], 48
LCFI113:
	ret
LFE2833:
	.align	2
	.globl __ZNSt5dequeIiSaIiEE3endEv
	.weak_definition __ZNSt5dequeIiSaIiEE3endEv
__ZNSt5dequeIiSaIiEE3endEv:
LFB2834:
	stp	x29, x30, [sp, -48]!
LCFI114:
	mov	x29, sp
	str	x19, [sp, 16]
LCFI115:
	mov	x19, x8
	str	x0, [sp, 40]
	ldr	x0, [sp, 40]
	add	x0, x0, 48
	mov	x1, x0
	mov	x0, x19
	bl	__ZNSt15_Deque_iteratorIiRiPiEC1ERKS2_
	mov	x0, x19
	ldr	x19, [sp, 16]
	ldp	x29, x30, [sp], 48
LCFI116:
	ret
LFE2834:
	.align	2
	.globl __ZNSt11_Deque_baseIiSaIiEE19_M_get_Tp_allocatorEv
	.weak_definition __ZNSt11_Deque_baseIiSaIiEE19_M_get_Tp_allocatorEv
__ZNSt11_Deque_baseIiSaIiEE19_M_get_Tp_allocatorEv:
LFB2835:
	sub	sp, sp, #16
LCFI117:
	str	x0, [sp, 8]
	ldr	x0, [sp, 8]
	add	sp, sp, 16
LCFI118:
	ret
LFE2835:
	.align	2
	.globl __ZNSt5dequeIiSaIiEE15_M_destroy_dataESt15_Deque_iteratorIiRiPiES5_RKS0_
	.weak_definition __ZNSt5dequeIiSaIiEE15_M_destroy_dataESt15_Deque_iteratorIiRiPiES5_RKS0_
__ZNSt5dequeIiSaIiEE15_M_destroy_dataESt15_Deque_iteratorIiRiPiES5_RKS0_:
LFB2836:
	sub	sp, sp, #96
LCFI119:
	str	x0, [sp, 24]
	str	x1, [sp, 16]
	str	x2, [sp, 8]
	str	x3, [sp]
	nop
	add	sp, sp, 96
LCFI120:
	ret
LFE2836:
	.align	2
	.globl __ZNSt5dequeIiSaIiEE9push_backERKi
	.weak_definition __ZNSt5dequeIiSaIiEE9push_backERKi
__ZNSt5dequeIiSaIiEE9push_backERKi:
LFB2837:
	stp	x29, x30, [sp, -32]!
LCFI121:
	mov	x29, sp
	str	x0, [sp, 24]
	str	x1, [sp, 16]
	ldr	x0, [sp, 24]
	ldr	x1, [x0, 48]
	ldr	x0, [sp, 24]
	ldr	x0, [x0, 64]
	sub	x0, x0, #4
	cmp	x1, x0
	beq	L156
	ldr	x3, [sp, 24]
	ldr	x0, [sp, 24]
	ldr	x0, [x0, 48]
	ldr	x2, [sp, 16]
	mov	x1, x0
	mov	x0, x3
	bl	__ZNSt16allocator_traitsISaIiEE9constructIiJRKiEEEvRS0_PT_DpOT0_
	ldr	x0, [sp, 24]
	ldr	x0, [x0, 48]
	add	x1, x0, 4
	ldr	x0, [sp, 24]
	str	x1, [x0, 48]
	b	L158
L156:
	ldr	x1, [sp, 16]
	ldr	x0, [sp, 24]
	bl	__ZNSt5dequeIiSaIiEE16_M_push_back_auxIJRKiEEEvDpOT_
L158:
	nop
	ldp	x29, x30, [sp], 32
LCFI122:
	ret
LFE2837:
	.align	2
	.globl __ZNKSt5dequeIiSaIiEE5emptyEv
	.weak_definition __ZNKSt5dequeIiSaIiEE5emptyEv
__ZNKSt5dequeIiSaIiEE5emptyEv:
LFB2838:
	stp	x29, x30, [sp, -32]!
LCFI123:
	mov	x29, sp
	str	x0, [sp, 24]
	ldr	x0, [sp, 24]
	add	x2, x0, 48
	ldr	x0, [sp, 24]
	add	x0, x0, 16
	mov	x1, x0
	mov	x0, x2
	bl	__ZSteqRKSt15_Deque_iteratorIiRiPiES4_
	and	w0, w0, 255
	ldp	x29, x30, [sp], 32
LCFI124:
	ret
LFE2838:
	.align	2
	.globl __ZNSt5dequeIiSaIiEE5frontEv
	.weak_definition __ZNSt5dequeIiSaIiEE5frontEv
__ZNSt5dequeIiSaIiEE5frontEv:
LFB2839:
	stp	x29, x30, [sp, -64]!
LCFI125:
	mov	x29, sp
	str	x0, [sp, 24]
	add	x0, sp, 32
	mov	x8, x0
	ldr	x0, [sp, 24]
	bl	__ZNSt5dequeIiSaIiEE5beginEv
	add	x0, sp, 32
	bl	__ZNKSt15_Deque_iteratorIiRiPiEdeEv
	ldp	x29, x30, [sp], 64
LCFI126:
	ret
LFE2839:
	.align	2
	.globl __ZNSt5dequeIiSaIiEE9pop_frontEv
	.weak_definition __ZNSt5dequeIiSaIiEE9pop_frontEv
__ZNSt5dequeIiSaIiEE9pop_frontEv:
LFB2840:
	stp	x29, x30, [sp, -32]!
LCFI127:
	mov	x29, sp
	str	x0, [sp, 24]
	ldr	x0, [sp, 24]
	ldr	x1, [x0, 16]
	ldr	x0, [sp, 24]
	ldr	x0, [x0, 32]
	sub	x0, x0, #4
	cmp	x1, x0
	beq	L164
	ldr	x0, [sp, 24]
	bl	__ZNSt11_Deque_baseIiSaIiEE19_M_get_Tp_allocatorEv
	mov	x2, x0
	ldr	x0, [sp, 24]
	ldr	x0, [x0, 16]
	mov	x1, x0
	mov	x0, x2
	bl	__ZNSt16allocator_traitsISaIiEE7destroyIiEEvRS0_PT_
	ldr	x0, [sp, 24]
	ldr	x0, [x0, 16]
	add	x1, x0, 4
	ldr	x0, [sp, 24]
	str	x1, [x0, 16]
	b	L166
L164:
	ldr	x0, [sp, 24]
	bl	__ZNSt5dequeIiSaIiEE16_M_pop_front_auxEv
L166:
	nop
	ldp	x29, x30, [sp], 32
LCFI128:
	ret
LFE2840:
	.align	2
	.globl __ZN9__gnu_cxx14__alloc_traitsISaISt6vectorIiSaIiEEES3_E17_S_select_on_copyERKS4_
	.weak_definition __ZN9__gnu_cxx14__alloc_traitsISaISt6vectorIiSaIiEEES3_E17_S_select_on_copyERKS4_
__ZN9__gnu_cxx14__alloc_traitsISaISt6vectorIiSaIiEEES3_E17_S_select_on_copyERKS4_:
LFB2841:
	stp	x29, x30, [sp, -48]!
LCFI129:
	mov	x29, sp
	str	x19, [sp, 16]
LCFI130:
	mov	x19, x8
	str	x0, [sp, 40]
	mov	x8, x19
	ldr	x0, [sp, 40]
	bl	__ZNSt16allocator_traitsISaISt6vectorIiSaIiEEEE37select_on_container_copy_constructionERKS3_
	mov	x0, x19
	ldr	x19, [sp, 16]
	ldp	x29, x30, [sp], 48
LCFI131:
	ret
LFE2841:
	.align	2
	.globl __ZNKSt12_Vector_baseISt6vectorIiSaIiEESaIS2_EE19_M_get_Tp_allocatorEv
	.weak_definition __ZNKSt12_Vector_baseISt6vectorIiSaIiEESaIS2_EE19_M_get_Tp_allocatorEv
__ZNKSt12_Vector_baseISt6vectorIiSaIiEESaIS2_EE19_M_get_Tp_allocatorEv:
LFB2842:
	sub	sp, sp, #16
LCFI132:
	str	x0, [sp, 8]
	ldr	x0, [sp, 8]
	add	sp, sp, 16
LCFI133:
	ret
LFE2842:
	.align	2
	.globl __ZNSt12_Vector_baseISt6vectorIiSaIiEESaIS2_EEC2EmRKS3_
	.weak_definition __ZNSt12_Vector_baseISt6vectorIiSaIiEESaIS2_EEC2EmRKS3_
__ZNSt12_Vector_baseISt6vectorIiSaIiEESaIS2_EEC2EmRKS3_:
LFB2844:
	stp	x29, x30, [sp, -64]!
LCFI134:
	mov	x29, sp
	str	x19, [sp, 16]
LCFI135:
	str	x0, [sp, 56]
	str	x1, [sp, 48]
	str	x2, [sp, 40]
	ldr	x0, [sp, 56]
	ldr	x1, [sp, 40]
	bl	__ZNSt12_Vector_baseISt6vectorIiSaIiEESaIS2_EE12_Vector_implC1ERKS3_
	ldr	x1, [sp, 48]
	ldr	x0, [sp, 56]
LEHB33:
	bl	__ZNSt12_Vector_baseISt6vectorIiSaIiEESaIS2_EE17_M_create_storageEm
LEHE33:
	b	L174
L173:
	mov	x19, x0
	ldr	x0, [sp, 56]
	bl	__ZNSt12_Vector_baseISt6vectorIiSaIiEESaIS2_EE12_Vector_implD1Ev
	mov	x0, x19
LEHB34:
	bl	__Unwind_Resume
LEHE34:
L174:
	ldr	x19, [sp, 16]
	ldp	x29, x30, [sp], 64
LCFI136:
	ret
LFE2844:
	.section __DATA,__gcc_except_tab
_GCC_except_table14:
LLSDA2844:
	.byte	0xff
	.byte	0xff
	.byte	0x1
	.uleb128 LLSDACSE2844-LLSDACSB2844
LLSDACSB2844:
	.uleb128 LEHB33-LFB2844
	.uleb128 LEHE33-LEHB33
	.uleb128 L173-LFB2844
	.uleb128 0
	.uleb128 LEHB34-LFB2844
	.uleb128 LEHE34-LEHB34
	.uleb128 0
	.uleb128 0
LLSDACSE2844:
	.text
	.align	2
	.globl __ZNKSt6vectorIS_IiSaIiEESaIS1_EE5beginEv
	.weak_definition __ZNKSt6vectorIS_IiSaIiEESaIS1_EE5beginEv
__ZNKSt6vectorIS_IiSaIiEESaIS1_EE5beginEv:
LFB2846:
	stp	x29, x30, [sp, -48]!
LCFI137:
	mov	x29, sp
	str	x0, [sp, 24]
	ldr	x1, [sp, 24]
	add	x0, sp, 40
	bl	__ZN9__gnu_cxx17__normal_iteratorIPKSt6vectorIiSaIiEES1_IS3_SaIS3_EEEC1ERKS5_
	ldr	x0, [sp, 40]
	ldp	x29, x30, [sp], 48
LCFI138:
	ret
LFE2846:
	.align	2
	.globl __ZNKSt6vectorIS_IiSaIiEESaIS1_EE3endEv
	.weak_definition __ZNKSt6vectorIS_IiSaIiEESaIS1_EE3endEv
__ZNKSt6vectorIS_IiSaIiEESaIS1_EE3endEv:
LFB2847:
	stp	x29, x30, [sp, -48]!
LCFI139:
	mov	x29, sp
	str	x0, [sp, 24]
	ldr	x0, [sp, 24]
	add	x1, x0, 8
	add	x0, sp, 40
	bl	__ZN9__gnu_cxx17__normal_iteratorIPKSt6vectorIiSaIiEES1_IS3_SaIS3_EEEC1ERKS5_
	ldr	x0, [sp, 40]
	ldp	x29, x30, [sp], 48
LCFI140:
	ret
LFE2847:
	.align	2
	.globl __ZSt22__uninitialized_copy_aIN9__gnu_cxx17__normal_iteratorIPKSt6vectorIiSaIiEES2_IS4_SaIS4_EEEEPS4_S4_ET0_T_SC_SB_RSaIT1_E
	.weak_definition __ZSt22__uninitialized_copy_aIN9__gnu_cxx17__normal_iteratorIPKSt6vectorIiSaIiEES2_IS4_SaIS4_EEEEPS4_S4_ET0_T_SC_SB_RSaIT1_E
__ZSt22__uninitialized_copy_aIN9__gnu_cxx17__normal_iteratorIPKSt6vectorIiSaIiEES2_IS4_SaIS4_EEEEPS4_S4_ET0_T_SC_SB_RSaIT1_E:
LFB2848:
	stp	x29, x30, [sp, -48]!
LCFI141:
	mov	x29, sp
	str	x0, [sp, 40]
	str	x1, [sp, 32]
	str	x2, [sp, 24]
	str	x3, [sp, 16]
	ldr	x2, [sp, 24]
	ldr	x1, [sp, 32]
	ldr	x0, [sp, 40]
	bl	__ZSt18uninitialized_copyIN9__gnu_cxx17__normal_iteratorIPKSt6vectorIiSaIiEES2_IS4_SaIS4_EEEEPS4_ET0_T_SC_SB_
	ldp	x29, x30, [sp], 48
LCFI142:
	ret
LFE2848:
	.align	2
	.globl __ZN9__gnu_cxx13new_allocatorISt6vectorIiSaIiEEEC2Ev
	.weak_definition __ZN9__gnu_cxx13new_allocatorISt6vectorIiSaIiEEEC2Ev
__ZN9__gnu_cxx13new_allocatorISt6vectorIiSaIiEEEC2Ev:
LFB2887:
	sub	sp, sp, #16
LCFI143:
	str	x0, [sp, 8]
	nop
	add	sp, sp, 16
LCFI144:
	ret
LFE2887:
	.align	2
	.globl __ZNSt16allocator_traitsISaISt6vectorIiSaIiEEEE10deallocateERS3_PS2_m
	.weak_definition __ZNSt16allocator_traitsISaISt6vectorIiSaIiEEEE10deallocateERS3_PS2_m
__ZNSt16allocator_traitsISaISt6vectorIiSaIiEEEE10deallocateERS3_PS2_m:
LFB2889:
	stp	x29, x30, [sp, -48]!
LCFI145:
	mov	x29, sp
	str	x0, [sp, 40]
	str	x1, [sp, 32]
	str	x2, [sp, 24]
	ldr	x2, [sp, 24]
	ldr	x1, [sp, 32]
	ldr	x0, [sp, 40]
	bl	__ZN9__gnu_cxx13new_allocatorISt6vectorIiSaIiEEE10deallocateEPS3_m
	nop
	ldp	x29, x30, [sp], 48
LCFI146:
	ret
LFE2889:
	.align	2
	.globl __ZSt8_DestroyIPSt6vectorIiSaIiEEEvT_S4_
	.weak_definition __ZSt8_DestroyIPSt6vectorIiSaIiEEEvT_S4_
__ZSt8_DestroyIPSt6vectorIiSaIiEEEvT_S4_:
LFB2890:
	stp	x29, x30, [sp, -32]!
LCFI147:
	mov	x29, sp
	str	x0, [sp, 24]
	str	x1, [sp, 16]
	ldr	x1, [sp, 16]
	ldr	x0, [sp, 24]
	bl	__ZNSt12_Destroy_auxILb0EE9__destroyIPSt6vectorIiSaIiEEEEvT_S6_
	nop
	ldp	x29, x30, [sp], 32
LCFI148:
	ret
LFE2890:
	.align	2
	.globl __ZNKSt6vectorIS_IiSaIiEESaIS1_EE8max_sizeEv
	.weak_definition __ZNKSt6vectorIS_IiSaIiEESaIS1_EE8max_sizeEv
__ZNKSt6vectorIS_IiSaIiEESaIS1_EE8max_sizeEv:
LFB2891:
	stp	x29, x30, [sp, -32]!
LCFI149:
	mov	x29, sp
	str	x0, [sp, 24]
	ldr	x0, [sp, 24]
	bl	__ZNKSt12_Vector_baseISt6vectorIiSaIiEESaIS2_EE19_M_get_Tp_allocatorEv
	bl	__ZNSt6vectorIS_IiSaIiEESaIS1_EE11_S_max_sizeERKS2_
	ldp	x29, x30, [sp], 32
LCFI150:
	ret
LFE2891:
	.align	2
	.globl __ZSt27__uninitialized_default_n_aIPSt6vectorIiSaIiEEmS2_ET_S4_T0_RSaIT1_E
	.weak_definition __ZSt27__uninitialized_default_n_aIPSt6vectorIiSaIiEEmS2_ET_S4_T0_RSaIT1_E
__ZSt27__uninitialized_default_n_aIPSt6vectorIiSaIiEEmS2_ET_S4_T0_RSaIT1_E:
LFB2892:
	stp	x29, x30, [sp, -48]!
LCFI151:
	mov	x29, sp
	str	x0, [sp, 40]
	str	x1, [sp, 32]
	str	x2, [sp, 24]
	ldr	x1, [sp, 32]
	ldr	x0, [sp, 40]
	bl	__ZSt25__uninitialized_default_nIPSt6vectorIiSaIiEEmET_S4_T0_
	ldp	x29, x30, [sp], 48
LCFI152:
	ret
LFE2892:
	.align	2
	.globl __ZNKSt6vectorIS_IiSaIiEESaIS1_EE12_M_check_lenEmPKc
	.weak_definition __ZNKSt6vectorIS_IiSaIiEESaIS1_EE12_M_check_lenEmPKc
__ZNKSt6vectorIS_IiSaIiEESaIS1_EE12_M_check_lenEmPKc:
LFB2893:
	stp	x29, x30, [sp, -80]!
LCFI153:
	mov	x29, sp
	str	x19, [sp, 16]
LCFI154:
	str	x0, [sp, 56]
	str	x1, [sp, 48]
	str	x2, [sp, 40]
	ldr	x0, [sp, 56]
	bl	__ZNKSt6vectorIS_IiSaIiEESaIS1_EE8max_sizeEv
	mov	x19, x0
	ldr	x0, [sp, 56]
	bl	__ZNKSt6vectorIS_IiSaIiEESaIS1_EE4sizeEv
	sub	x1, x19, x0
	ldr	x0, [sp, 48]
	cmp	x1, x0
	cset	w0, cc
	and	w0, w0, 255
	cmp	w0, 0
	beq	L189
	ldr	x0, [sp, 40]
	bl	__ZSt20__throw_length_errorPKc
L189:
	ldr	x0, [sp, 56]
	bl	__ZNKSt6vectorIS_IiSaIiEESaIS1_EE4sizeEv
	mov	x19, x0
	ldr	x0, [sp, 56]
	bl	__ZNKSt6vectorIS_IiSaIiEESaIS1_EE4sizeEv
	str	x0, [sp, 64]
	add	x1, sp, 48
	add	x0, sp, 64
	bl	__ZSt3maxImERKT_S2_S2_
	ldr	x0, [x0]
	add	x0, x19, x0
	str	x0, [sp, 72]
	ldr	x0, [sp, 56]
	bl	__ZNKSt6vectorIS_IiSaIiEESaIS1_EE4sizeEv
	mov	x1, x0
	ldr	x0, [sp, 72]
	cmp	x0, x1
	bcc	L190
	ldr	x0, [sp, 56]
	bl	__ZNKSt6vectorIS_IiSaIiEESaIS1_EE8max_sizeEv
	mov	x1, x0
	ldr	x0, [sp, 72]
	cmp	x0, x1
	bls	L191
L190:
	ldr	x0, [sp, 56]
	bl	__ZNKSt6vectorIS_IiSaIiEESaIS1_EE8max_sizeEv
	b	L192
L191:
	ldr	x0, [sp, 72]
L192:
	ldr	x19, [sp, 16]
	ldp	x29, x30, [sp], 80
LCFI155:
	ret
LFE2893:
	.align	2
	.globl __ZNSt12_Vector_baseISt6vectorIiSaIiEESaIS2_EE11_M_allocateEm
	.weak_definition __ZNSt12_Vector_baseISt6vectorIiSaIiEESaIS2_EE11_M_allocateEm
__ZNSt12_Vector_baseISt6vectorIiSaIiEESaIS2_EE11_M_allocateEm:
LFB2894:
	stp	x29, x30, [sp, -32]!
LCFI156:
	mov	x29, sp
	str	x0, [sp, 24]
	str	x1, [sp, 16]
	ldr	x0, [sp, 16]
	cmp	x0, 0
	beq	L195
	ldr	x0, [sp, 24]
	ldr	x1, [sp, 16]
	bl	__ZNSt16allocator_traitsISaISt6vectorIiSaIiEEEE8allocateERS3_m
	b	L197
L195:
	mov	x0, 0
L197:
	ldp	x29, x30, [sp], 32
LCFI157:
	ret
LFE2894:
	.align	2
	.globl __ZNSt6vectorIS_IiSaIiEESaIS1_EE11_S_relocateEPS1_S4_S4_RS2_
	.weak_definition __ZNSt6vectorIS_IiSaIiEESaIS1_EE11_S_relocateEPS1_S4_S4_RS2_
__ZNSt6vectorIS_IiSaIiEESaIS1_EE11_S_relocateEPS1_S4_S4_RS2_:
LFB2895:
	stp	x29, x30, [sp, -48]!
LCFI158:
	mov	x29, sp
	str	x0, [sp, 40]
	str	x1, [sp, 32]
	str	x2, [sp, 24]
	str	x3, [sp, 16]
	ldr	x3, [sp, 16]
	ldr	x2, [sp, 24]
	ldr	x1, [sp, 32]
	ldr	x0, [sp, 40]
	bl	__ZNSt6vectorIS_IiSaIiEESaIS1_EE14_S_do_relocateEPS1_S4_S4_RS2_St17integral_constantIbLb1EE
	ldp	x29, x30, [sp], 48
LCFI159:
	ret
LFE2895:
	.align	2
	.globl __ZNKSt6vectorIiSaIiEE8max_sizeEv
	.weak_definition __ZNKSt6vectorIiSaIiEE8max_sizeEv
__ZNKSt6vectorIiSaIiEE8max_sizeEv:
LFB2896:
	stp	x29, x30, [sp, -32]!
LCFI160:
	mov	x29, sp
	str	x0, [sp, 24]
	ldr	x0, [sp, 24]
	bl	__ZNKSt12_Vector_baseIiSaIiEE19_M_get_Tp_allocatorEv
	bl	__ZNSt6vectorIiSaIiEE11_S_max_sizeERKS0_
	ldp	x29, x30, [sp], 32
LCFI161:
	ret
LFE2896:
	.align	2
	.globl __ZNSt12_Vector_baseIiSaIiEE19_M_get_Tp_allocatorEv
	.weak_definition __ZNSt12_Vector_baseIiSaIiEE19_M_get_Tp_allocatorEv
__ZNSt12_Vector_baseIiSaIiEE19_M_get_Tp_allocatorEv:
LFB2897:
	sub	sp, sp, #16
LCFI162:
	str	x0, [sp, 8]
	ldr	x0, [sp, 8]
	add	sp, sp, 16
LCFI163:
	ret
LFE2897:
	.align	2
	.globl __ZSt27__uninitialized_default_n_aIPimiET_S1_T0_RSaIT1_E
	.weak_definition __ZSt27__uninitialized_default_n_aIPimiET_S1_T0_RSaIT1_E
__ZSt27__uninitialized_default_n_aIPimiET_S1_T0_RSaIT1_E:
LFB2898:
	stp	x29, x30, [sp, -48]!
LCFI164:
	mov	x29, sp
	str	x0, [sp, 40]
	str	x1, [sp, 32]
	str	x2, [sp, 24]
	ldr	x1, [sp, 32]
	ldr	x0, [sp, 40]
	bl	__ZSt25__uninitialized_default_nIPimET_S1_T0_
	ldp	x29, x30, [sp], 48
LCFI165:
	ret
LFE2898:
	.align	2
	.globl __ZNKSt6vectorIiSaIiEE12_M_check_lenEmPKc
	.weak_definition __ZNKSt6vectorIiSaIiEE12_M_check_lenEmPKc
__ZNKSt6vectorIiSaIiEE12_M_check_lenEmPKc:
LFB2899:
	stp	x29, x30, [sp, -80]!
LCFI166:
	mov	x29, sp
	str	x19, [sp, 16]
LCFI167:
	str	x0, [sp, 56]
	str	x1, [sp, 48]
	str	x2, [sp, 40]
	ldr	x0, [sp, 56]
	bl	__ZNKSt6vectorIiSaIiEE8max_sizeEv
	mov	x19, x0
	ldr	x0, [sp, 56]
	bl	__ZNKSt6vectorIiSaIiEE4sizeEv
	sub	x1, x19, x0
	ldr	x0, [sp, 48]
	cmp	x1, x0
	cset	w0, cc
	and	w0, w0, 255
	cmp	w0, 0
	beq	L207
	ldr	x0, [sp, 40]
	bl	__ZSt20__throw_length_errorPKc
L207:
	ldr	x0, [sp, 56]
	bl	__ZNKSt6vectorIiSaIiEE4sizeEv
	mov	x19, x0
	ldr	x0, [sp, 56]
	bl	__ZNKSt6vectorIiSaIiEE4sizeEv
	str	x0, [sp, 64]
	add	x1, sp, 48
	add	x0, sp, 64
	bl	__ZSt3maxImERKT_S2_S2_
	ldr	x0, [x0]
	add	x0, x19, x0
	str	x0, [sp, 72]
	ldr	x0, [sp, 56]
	bl	__ZNKSt6vectorIiSaIiEE4sizeEv
	mov	x1, x0
	ldr	x0, [sp, 72]
	cmp	x0, x1
	bcc	L208
	ldr	x0, [sp, 56]
	bl	__ZNKSt6vectorIiSaIiEE8max_sizeEv
	mov	x1, x0
	ldr	x0, [sp, 72]
	cmp	x0, x1
	bls	L209
L208:
	ldr	x0, [sp, 56]
	bl	__ZNKSt6vectorIiSaIiEE8max_sizeEv
	b	L210
L209:
	ldr	x0, [sp, 72]
L210:
	ldr	x19, [sp, 16]
	ldp	x29, x30, [sp], 80
LCFI168:
	ret
LFE2899:
	.align	2
	.globl __ZNSt12_Vector_baseIiSaIiEE11_M_allocateEm
	.weak_definition __ZNSt12_Vector_baseIiSaIiEE11_M_allocateEm
__ZNSt12_Vector_baseIiSaIiEE11_M_allocateEm:
LFB2900:
	stp	x29, x30, [sp, -32]!
LCFI169:
	mov	x29, sp
	str	x0, [sp, 24]
	str	x1, [sp, 16]
	ldr	x0, [sp, 16]
	cmp	x0, 0
	beq	L213
	ldr	x0, [sp, 24]
	ldr	x1, [sp, 16]
	bl	__ZNSt16allocator_traitsISaIiEE8allocateERS0_m
	b	L215
L213:
	mov	x0, 0
L215:
	ldp	x29, x30, [sp], 32
LCFI170:
	ret
LFE2900:
	.align	2
	.globl __ZNSt12_Vector_baseIiSaIiEE13_M_deallocateEPim
	.weak_definition __ZNSt12_Vector_baseIiSaIiEE13_M_deallocateEPim
__ZNSt12_Vector_baseIiSaIiEE13_M_deallocateEPim:
LFB2901:
	stp	x29, x30, [sp, -48]!
LCFI171:
	mov	x29, sp
	str	x0, [sp, 40]
	str	x1, [sp, 32]
	str	x2, [sp, 24]
	ldr	x0, [sp, 32]
	cmp	x0, 0
	beq	L218
	ldr	x0, [sp, 40]
	ldr	x2, [sp, 24]
	ldr	x1, [sp, 32]
	bl	__ZNSt16allocator_traitsISaIiEE10deallocateERS0_Pim
L218:
	nop
	ldp	x29, x30, [sp], 48
LCFI172:
	ret
LFE2901:
	.align	2
	.globl __ZNSt6vectorIiSaIiEE11_S_relocateEPiS2_S2_RS0_
	.weak_definition __ZNSt6vectorIiSaIiEE11_S_relocateEPiS2_S2_RS0_
__ZNSt6vectorIiSaIiEE11_S_relocateEPiS2_S2_RS0_:
LFB2902:
	stp	x29, x30, [sp, -48]!
LCFI173:
	mov	x29, sp
	str	x0, [sp, 40]
	str	x1, [sp, 32]
	str	x2, [sp, 24]
	str	x3, [sp, 16]
	ldr	x3, [sp, 16]
	ldr	x2, [sp, 24]
	ldr	x1, [sp, 32]
	ldr	x0, [sp, 40]
	bl	__ZNSt6vectorIiSaIiEE14_S_do_relocateEPiS2_S2_RS0_St17integral_constantIbLb1EE
	ldp	x29, x30, [sp], 48
LCFI174:
	ret
LFE2902:
	.align	2
	.globl __ZSt8_DestroyIPiiEvT_S1_RSaIT0_E
	.weak_definition __ZSt8_DestroyIPiiEvT_S1_RSaIT0_E
__ZSt8_DestroyIPiiEvT_S1_RSaIT0_E:
LFB2903:
	stp	x29, x30, [sp, -48]!
LCFI175:
	mov	x29, sp
	str	x0, [sp, 40]
	str	x1, [sp, 32]
	str	x2, [sp, 24]
	ldr	x1, [sp, 32]
	ldr	x0, [sp, 40]
	bl	__ZSt8_DestroyIPiEvT_S1_
	nop
	ldp	x29, x30, [sp], 48
LCFI176:
	ret
LFE2903:
	.align	2
	.globl __ZNSt11_Deque_baseIiSaIiEE11_Deque_implC1Ev
	.weak_definition __ZNSt11_Deque_baseIiSaIiEE11_Deque_implC1Ev
__ZNSt11_Deque_baseIiSaIiEE11_Deque_implC1Ev:
LFB2906:
	stp	x29, x30, [sp, -32]!
LCFI177:
	mov	x29, sp
	str	x0, [sp, 24]
	ldr	x0, [sp, 24]
	bl	__ZNSaIiEC2Ev
	ldr	x0, [sp, 24]
	bl	__ZNSt11_Deque_baseIiSaIiEE16_Deque_impl_dataC2Ev
	nop
	ldp	x29, x30, [sp], 32
LCFI178:
	ret
LFE2906:
	.align	2
	.globl __ZNSaIiED2Ev
	.weak_definition __ZNSaIiED2Ev
__ZNSaIiED2Ev:
LFB2908:
	stp	x29, x30, [sp, -32]!
LCFI179:
	mov	x29, sp
	str	x0, [sp, 24]
	ldr	x0, [sp, 24]
	bl	__ZN9__gnu_cxx13new_allocatorIiED2Ev
	nop
	ldp	x29, x30, [sp], 32
LCFI180:
	ret
LFE2908:
	.align	2
	.globl __ZNSaIiED1Ev
	.weak_definition __ZNSaIiED1Ev
__ZNSaIiED1Ev:
LFB2909:
	stp	x29, x30, [sp, -32]!
LCFI181:
	mov	x29, sp
	str	x0, [sp, 24]
	ldr	x0, [sp, 24]
	bl	__ZN9__gnu_cxx13new_allocatorIiED2Ev
	nop
	ldp	x29, x30, [sp], 32
LCFI182:
	ret
LFE2909:
	.align	2
	.globl __ZNSt11_Deque_baseIiSaIiEE17_M_initialize_mapEm
	.weak_definition __ZNSt11_Deque_baseIiSaIiEE17_M_initialize_mapEm
__ZNSt11_Deque_baseIiSaIiEE17_M_initialize_mapEm:
LFB2910:
	stp	x29, x30, [sp, -96]!
LCFI183:
	mov	x29, sp
	str	x19, [sp, 16]
LCFI184:
	str	x0, [sp, 40]
	str	x1, [sp, 32]
	mov	x0, 4
	bl	__ZSt16__deque_buf_sizem
	mov	x1, x0
	ldr	x0, [sp, 32]
	udiv	x0, x0, x1
	add	x0, x0, 1
	str	x0, [sp, 88]
	mov	x0, 8
	str	x0, [sp, 56]
	ldr	x0, [sp, 88]
	add	x0, x0, 2
	str	x0, [sp, 64]
	add	x1, sp, 64
	add	x0, sp, 56
	bl	__ZSt3maxImERKT_S2_S2_
	ldr	x1, [x0]
	ldr	x0, [sp, 40]
	str	x1, [x0, 8]
	ldr	x0, [sp, 40]
	ldr	x0, [x0, 8]
	mov	x1, x0
	ldr	x0, [sp, 40]
LEHB35:
	bl	__ZNSt11_Deque_baseIiSaIiEE15_M_allocate_mapEm
LEHE35:
	mov	x1, x0
	ldr	x0, [sp, 40]
	str	x1, [x0]
	ldr	x0, [sp, 40]
	ldr	x1, [x0]
	ldr	x0, [sp, 40]
	ldr	x2, [x0, 8]
	ldr	x0, [sp, 88]
	sub	x0, x2, x0
	lsr	x0, x0, 1
	lsl	x0, x0, 3
	add	x0, x1, x0
	str	x0, [sp, 80]
	ldr	x0, [sp, 88]
	lsl	x0, x0, 3
	ldr	x1, [sp, 80]
	add	x0, x1, x0
	str	x0, [sp, 72]
	ldr	x2, [sp, 72]
	ldr	x1, [sp, 80]
	ldr	x0, [sp, 40]
LEHB36:
	bl	__ZNSt11_Deque_baseIiSaIiEE15_M_create_nodesEPPiS3_
LEHE36:
	ldr	x0, [sp, 40]
	add	x0, x0, 16
	ldr	x1, [sp, 80]
	bl	__ZNSt15_Deque_iteratorIiRiPiE11_M_set_nodeEPS1_
	ldr	x0, [sp, 40]
	add	x2, x0, 48
	ldr	x0, [sp, 72]
	sub	x0, x0, #8
	mov	x1, x0
	mov	x0, x2
	bl	__ZNSt15_Deque_iteratorIiRiPiE11_M_set_nodeEPS1_
	ldr	x0, [sp, 40]
	ldr	x1, [x0, 24]
	ldr	x0, [sp, 40]
	str	x1, [x0, 16]
	ldr	x0, [sp, 40]
	ldr	x19, [x0, 56]
	mov	x0, 4
	bl	__ZSt16__deque_buf_sizem
	mov	x1, x0
	ldr	x0, [sp, 32]
	udiv	x2, x0, x1
	mul	x1, x2, x1
	sub	x0, x0, x1
	lsl	x0, x0, 2
	add	x1, x19, x0
	ldr	x0, [sp, 40]
	str	x1, [x0, 48]
	b	L230
L228:
	bl	___cxa_begin_catch
	ldr	x0, [sp, 40]
	ldr	x1, [x0]
	ldr	x0, [sp, 40]
	ldr	x0, [x0, 8]
	mov	x2, x0
	ldr	x0, [sp, 40]
	bl	__ZNSt11_Deque_baseIiSaIiEE17_M_deallocate_mapEPPim
	ldr	x0, [sp, 40]
	str	xzr, [x0]
	ldr	x0, [sp, 40]
	str	xzr, [x0, 8]
LEHB37:
	bl	___cxa_rethrow
LEHE37:
L229:
	mov	x19, x0
	bl	___cxa_end_catch
	mov	x0, x19
LEHB38:
	bl	__Unwind_Resume
LEHE38:
L230:
	ldr	x19, [sp, 16]
	ldp	x29, x30, [sp], 96
LCFI185:
	ret
LFE2910:
	.section __DATA,__gcc_except_tab
_GCC_except_table15:
	.align	3
LLSDA2910:
	.byte	0xff
	.byte	0
	.uleb128 LLSDATT2910-LLSDATTD2910
LLSDATTD2910:
	.byte	0x1
	.uleb128 LLSDACSE2910-LLSDACSB2910
LLSDACSB2910:
	.uleb128 LEHB35-LFB2910
	.uleb128 LEHE35-LEHB35
	.uleb128 0
	.uleb128 0
	.uleb128 LEHB36-LFB2910
	.uleb128 LEHE36-LEHB36
	.uleb128 L228-LFB2910
	.uleb128 0x1
	.uleb128 LEHB37-LFB2910
	.uleb128 LEHE37-LEHB37
	.uleb128 L229-LFB2910
	.uleb128 0
	.uleb128 LEHB38-LFB2910
	.uleb128 LEHE38-LEHB38
	.uleb128 0
	.uleb128 0
LLSDACSE2910:
	.byte	0x1
	.byte	0
	.align	3
	.xword	0
LLSDATT2910:
	.text
	.align	2
	.globl __ZNSt11_Deque_baseIiSaIiEE16_M_destroy_nodesEPPiS3_
	.weak_definition __ZNSt11_Deque_baseIiSaIiEE16_M_destroy_nodesEPPiS3_
__ZNSt11_Deque_baseIiSaIiEE16_M_destroy_nodesEPPiS3_:
LFB2911:
	stp	x29, x30, [sp, -64]!
LCFI186:
	mov	x29, sp
	str	x0, [sp, 40]
	str	x1, [sp, 32]
	str	x2, [sp, 24]
	ldr	x0, [sp, 32]
	str	x0, [sp, 56]
	b	L232
L233:
	ldr	x0, [sp, 56]
	ldr	x0, [x0]
	mov	x1, x0
	ldr	x0, [sp, 40]
	bl	__ZNSt11_Deque_baseIiSaIiEE18_M_deallocate_nodeEPi
	ldr	x0, [sp, 56]
	add	x0, x0, 8
	str	x0, [sp, 56]
L232:
	ldr	x1, [sp, 56]
	ldr	x0, [sp, 24]
	cmp	x1, x0
	bcc	L233
	nop
	nop
	ldp	x29, x30, [sp], 64
LCFI187:
	ret
LFE2911:
	.align	2
	.globl __ZNSt11_Deque_baseIiSaIiEE17_M_deallocate_mapEPPim
	.weak_definition __ZNSt11_Deque_baseIiSaIiEE17_M_deallocate_mapEPPim
__ZNSt11_Deque_baseIiSaIiEE17_M_deallocate_mapEPPim:
LFB2912:
	stp	x29, x30, [sp, -64]!
LCFI188:
	mov	x29, sp
	str	x0, [sp, 40]
	str	x1, [sp, 32]
	str	x2, [sp, 24]
	add	x0, sp, 56
	mov	x8, x0
	ldr	x0, [sp, 40]
	bl	__ZNKSt11_Deque_baseIiSaIiEE20_M_get_map_allocatorEv
	add	x0, sp, 56
	ldr	x2, [sp, 24]
	ldr	x1, [sp, 32]
	bl	__ZNSt16allocator_traitsISaIPiEE10deallocateERS1_PS0_m
	add	x0, sp, 56
	bl	__ZNSaIPiED1Ev
	ldp	x29, x30, [sp], 64
LCFI189:
	ret
LFE2912:
	.section __DATA,__gcc_except_tab
_GCC_except_table16:
LLSDA2912:
	.byte	0xff
	.byte	0xff
	.byte	0x1
	.uleb128 LLSDACSE2912-LLSDACSB2912
LLSDACSB2912:
LLSDACSE2912:
	.text
	.align	2
	.globl __ZNSt15_Deque_iteratorIiRiPiEC1ERKS2_
	.weak_definition __ZNSt15_Deque_iteratorIiRiPiEC1ERKS2_
__ZNSt15_Deque_iteratorIiRiPiEC1ERKS2_:
LFB2915:
	sub	sp, sp, #16
LCFI190:
	str	x0, [sp, 8]
	str	x1, [sp]
	ldr	x0, [sp]
	ldr	x1, [x0]
	ldr	x0, [sp, 8]
	str	x1, [x0]
	ldr	x0, [sp]
	ldr	x1, [x0, 8]
	ldr	x0, [sp, 8]
	str	x1, [x0, 8]
	ldr	x0, [sp]
	ldr	x1, [x0, 16]
	ldr	x0, [sp, 8]
	str	x1, [x0, 16]
	ldr	x0, [sp]
	ldr	x1, [x0, 24]
	ldr	x0, [sp, 8]
	str	x1, [x0, 24]
	nop
	add	sp, sp, 16
LCFI191:
	ret
LFE2915:
	.align	2
	.globl __ZNSt16allocator_traitsISaIiEE9constructIiJRKiEEEvRS0_PT_DpOT0_
	.weak_definition __ZNSt16allocator_traitsISaIiEE9constructIiJRKiEEEvRS0_PT_DpOT0_
__ZNSt16allocator_traitsISaIiEE9constructIiJRKiEEEvRS0_PT_DpOT0_:
LFB2917:
	stp	x29, x30, [sp, -48]!
LCFI192:
	mov	x29, sp
	str	x0, [sp, 40]
	str	x1, [sp, 32]
	str	x2, [sp, 24]
	ldr	x0, [sp, 24]
	bl	__ZSt7forwardIRKiEOT_RNSt16remove_referenceIS2_E4typeE
	mov	x2, x0
	ldr	x1, [sp, 32]
	ldr	x0, [sp, 40]
	bl	__ZN9__gnu_cxx13new_allocatorIiE9constructIiJRKiEEEvPT_DpOT0_
	nop
	ldp	x29, x30, [sp], 48
LCFI193:
	ret
LFE2917:
	.cstring
	.align	3
lC2:
	.ascii "cannot create std::deque larger than max_size()\0"
	.text
	.align	2
	.globl __ZNSt5dequeIiSaIiEE16_M_push_back_auxIJRKiEEEvDpOT_
	.weak_definition __ZNSt5dequeIiSaIiEE16_M_push_back_auxIJRKiEEEvDpOT_
__ZNSt5dequeIiSaIiEE16_M_push_back_auxIJRKiEEEvDpOT_:
LFB2918:
	stp	x29, x30, [sp, -48]!
LCFI194:
	mov	x29, sp
	stp	x19, x20, [sp, 16]
LCFI195:
	str	x0, [sp, 40]
	str	x1, [sp, 32]
	ldr	x0, [sp, 40]
	bl	__ZNKSt5dequeIiSaIiEE4sizeEv
	mov	x19, x0
	ldr	x0, [sp, 40]
	bl	__ZNKSt5dequeIiSaIiEE8max_sizeEv
	cmp	x19, x0
	cset	w0, eq
	and	w0, w0, 255
	cmp	w0, 0
	beq	L238
	adrp	x0, lC2@GOTPAGE
	ldr	x0, [x0, lC2@GOTPAGEOFF];momd
	bl	__ZSt20__throw_length_errorPKc
L238:
	mov	x1, 1
	ldr	x0, [sp, 40]
	bl	__ZNSt5dequeIiSaIiEE22_M_reserve_map_at_backEm
	ldr	x1, [sp, 40]
	ldr	x0, [sp, 40]
	ldr	x0, [x0, 72]
	add	x19, x0, 8
	mov	x0, x1
	bl	__ZNSt11_Deque_baseIiSaIiEE16_M_allocate_nodeEv
	str	x0, [x19]
	ldr	x19, [sp, 40]
	ldr	x0, [sp, 40]
	ldr	x20, [x0, 48]
	ldr	x0, [sp, 32]
	bl	__ZSt7forwardIRKiEOT_RNSt16remove_referenceIS2_E4typeE
	mov	x2, x0
	mov	x1, x20
	mov	x0, x19
	bl	__ZNSt16allocator_traitsISaIiEE9constructIiJRKiEEEvRS0_PT_DpOT0_
	ldr	x0, [sp, 40]
	add	x2, x0, 48
	ldr	x0, [sp, 40]
	ldr	x0, [x0, 72]
	add	x0, x0, 8
	mov	x1, x0
	mov	x0, x2
	bl	__ZNSt15_Deque_iteratorIiRiPiE11_M_set_nodeEPS1_
	ldr	x0, [sp, 40]
	ldr	x1, [x0, 56]
	ldr	x0, [sp, 40]
	str	x1, [x0, 48]
	nop
	ldp	x19, x20, [sp, 16]
	ldp	x29, x30, [sp], 48
LCFI196:
	ret
LFE2918:
	.align	2
	.globl __ZSteqRKSt15_Deque_iteratorIiRiPiES4_
	.weak_definition __ZSteqRKSt15_Deque_iteratorIiRiPiES4_
__ZSteqRKSt15_Deque_iteratorIiRiPiES4_:
LFB2919:
	sub	sp, sp, #16
LCFI197:
	str	x0, [sp, 8]
	str	x1, [sp]
	ldr	x0, [sp, 8]
	ldr	x1, [x0]
	ldr	x0, [sp]
	ldr	x0, [x0]
	cmp	x1, x0
	cset	w0, eq
	and	w0, w0, 255
	add	sp, sp, 16
LCFI198:
	ret
LFE2919:
	.align	2
	.globl __ZNKSt15_Deque_iteratorIiRiPiEdeEv
	.weak_definition __ZNKSt15_Deque_iteratorIiRiPiEdeEv
__ZNKSt15_Deque_iteratorIiRiPiEdeEv:
LFB2920:
	sub	sp, sp, #16
LCFI199:
	str	x0, [sp, 8]
	ldr	x0, [sp, 8]
	ldr	x0, [x0]
	add	sp, sp, 16
LCFI200:
	ret
LFE2920:
	.align	2
	.globl __ZNSt16allocator_traitsISaIiEE7destroyIiEEvRS0_PT_
	.weak_definition __ZNSt16allocator_traitsISaIiEE7destroyIiEEvRS0_PT_
__ZNSt16allocator_traitsISaIiEE7destroyIiEEvRS0_PT_:
LFB2921:
	stp	x29, x30, [sp, -32]!
LCFI201:
	mov	x29, sp
	str	x0, [sp, 24]
	str	x1, [sp, 16]
	ldr	x1, [sp, 16]
	ldr	x0, [sp, 24]
	bl	__ZN9__gnu_cxx13new_allocatorIiE7destroyIiEEvPT_
	nop
	ldp	x29, x30, [sp], 32
LCFI202:
	ret
LFE2921:
	.align	2
	.globl __ZNSt5dequeIiSaIiEE16_M_pop_front_auxEv
	.weak_definition __ZNSt5dequeIiSaIiEE16_M_pop_front_auxEv
__ZNSt5dequeIiSaIiEE16_M_pop_front_auxEv:
LFB2922:
	stp	x29, x30, [sp, -32]!
LCFI203:
	mov	x29, sp
	str	x0, [sp, 24]
	ldr	x0, [sp, 24]
	bl	__ZNSt11_Deque_baseIiSaIiEE19_M_get_Tp_allocatorEv
	mov	x2, x0
	ldr	x0, [sp, 24]
	ldr	x0, [x0, 16]
	mov	x1, x0
	mov	x0, x2
	bl	__ZNSt16allocator_traitsISaIiEE7destroyIiEEvRS0_PT_
	ldr	x2, [sp, 24]
	ldr	x0, [sp, 24]
	ldr	x0, [x0, 24]
	mov	x1, x0
	mov	x0, x2
	bl	__ZNSt11_Deque_baseIiSaIiEE18_M_deallocate_nodeEPi
	ldr	x0, [sp, 24]
	add	x2, x0, 16
	ldr	x0, [sp, 24]
	ldr	x0, [x0, 40]
	add	x0, x0, 8
	mov	x1, x0
	mov	x0, x2
	bl	__ZNSt15_Deque_iteratorIiRiPiE11_M_set_nodeEPS1_
	ldr	x0, [sp, 24]
	ldr	x1, [x0, 24]
	ldr	x0, [sp, 24]
	str	x1, [x0, 16]
	nop
	ldp	x29, x30, [sp], 32
LCFI204:
	ret
LFE2922:
	.align	2
	.globl __ZNSt16allocator_traitsISaISt6vectorIiSaIiEEEE37select_on_container_copy_constructionERKS3_
	.weak_definition __ZNSt16allocator_traitsISaISt6vectorIiSaIiEEEE37select_on_container_copy_constructionERKS3_
__ZNSt16allocator_traitsISaISt6vectorIiSaIiEEEE37select_on_container_copy_constructionERKS3_:
LFB2923:
	stp	x29, x30, [sp, -48]!
LCFI205:
	mov	x29, sp
	str	x19, [sp, 16]
LCFI206:
	mov	x19, x8
	str	x0, [sp, 40]
	ldr	x1, [sp, 40]
	mov	x0, x19
	bl	__ZNSaISt6vectorIiSaIiEEEC1ERKS2_
	mov	x0, x19
	ldr	x19, [sp, 16]
	ldp	x29, x30, [sp], 48
LCFI207:
	ret
LFE2923:
	.align	2
	.globl __ZNSt12_Vector_baseISt6vectorIiSaIiEESaIS2_EE12_Vector_implC1ERKS3_
	.weak_definition __ZNSt12_Vector_baseISt6vectorIiSaIiEESaIS2_EE12_Vector_implC1ERKS3_
__ZNSt12_Vector_baseISt6vectorIiSaIiEESaIS2_EE12_Vector_implC1ERKS3_:
LFB2926:
	stp	x29, x30, [sp, -32]!
LCFI208:
	mov	x29, sp
	str	x0, [sp, 24]
	str	x1, [sp, 16]
	ldr	x1, [sp, 16]
	ldr	x0, [sp, 24]
	bl	__ZNSaISt6vectorIiSaIiEEEC2ERKS2_
	ldr	x0, [sp, 24]
	bl	__ZNSt12_Vector_baseISt6vectorIiSaIiEESaIS2_EE17_Vector_impl_dataC2Ev
	nop
	ldp	x29, x30, [sp], 32
LCFI209:
	ret
LFE2926:
	.align	2
	.globl __ZNSt12_Vector_baseISt6vectorIiSaIiEESaIS2_EE17_M_create_storageEm
	.weak_definition __ZNSt12_Vector_baseISt6vectorIiSaIiEESaIS2_EE17_M_create_storageEm
__ZNSt12_Vector_baseISt6vectorIiSaIiEESaIS2_EE17_M_create_storageEm:
LFB2927:
	stp	x29, x30, [sp, -32]!
LCFI210:
	mov	x29, sp
	str	x0, [sp, 24]
	str	x1, [sp, 16]
	ldr	x1, [sp, 16]
	ldr	x0, [sp, 24]
	bl	__ZNSt12_Vector_baseISt6vectorIiSaIiEESaIS2_EE11_M_allocateEm
	mov	x1, x0
	ldr	x0, [sp, 24]
	str	x1, [x0]
	ldr	x0, [sp, 24]
	ldr	x1, [x0]
	ldr	x0, [sp, 24]
	str	x1, [x0, 8]
	ldr	x0, [sp, 24]
	ldr	x2, [x0]
	ldr	x1, [sp, 16]
	mov	x0, x1
	lsl	x0, x0, 1
	add	x0, x0, x1
	lsl	x0, x0, 3
	add	x1, x2, x0
	ldr	x0, [sp, 24]
	str	x1, [x0, 16]
	nop
	ldp	x29, x30, [sp], 32
LCFI211:
	ret
LFE2927:
	.align	2
	.globl __ZN9__gnu_cxx17__normal_iteratorIPKSt6vectorIiSaIiEES1_IS3_SaIS3_EEEC1ERKS5_
	.weak_definition __ZN9__gnu_cxx17__normal_iteratorIPKSt6vectorIiSaIiEES1_IS3_SaIS3_EEEC1ERKS5_
__ZN9__gnu_cxx17__normal_iteratorIPKSt6vectorIiSaIiEES1_IS3_SaIS3_EEEC1ERKS5_:
LFB2930:
	sub	sp, sp, #16
LCFI212:
	str	x0, [sp, 8]
	str	x1, [sp]
	ldr	x0, [sp]
	ldr	x1, [x0]
	ldr	x0, [sp, 8]
	str	x1, [x0]
	nop
	add	sp, sp, 16
LCFI213:
	ret
LFE2930:
	.align	2
	.globl __ZSt18uninitialized_copyIN9__gnu_cxx17__normal_iteratorIPKSt6vectorIiSaIiEES2_IS4_SaIS4_EEEEPS4_ET0_T_SC_SB_
	.weak_definition __ZSt18uninitialized_copyIN9__gnu_cxx17__normal_iteratorIPKSt6vectorIiSaIiEES2_IS4_SaIS4_EEEEPS4_ET0_T_SC_SB_
__ZSt18uninitialized_copyIN9__gnu_cxx17__normal_iteratorIPKSt6vectorIiSaIiEES2_IS4_SaIS4_EEEEPS4_ET0_T_SC_SB_:
LFB2931:
	stp	x29, x30, [sp, -64]!
LCFI214:
	mov	x29, sp
	str	x0, [sp, 40]
	str	x1, [sp, 32]
	str	x2, [sp, 24]
	mov	w0, 1
	strb	w0, [sp, 63]
	ldr	x2, [sp, 24]
	ldr	x1, [sp, 32]
	ldr	x0, [sp, 40]
	bl	__ZNSt20__uninitialized_copyILb0EE13__uninit_copyIN9__gnu_cxx17__normal_iteratorIPKSt6vectorIiSaIiEES4_IS6_SaIS6_EEEEPS6_EET0_T_SE_SD_
	ldp	x29, x30, [sp], 64
LCFI215:
	ret
LFE2931:
	.align	2
	.globl __ZN9__gnu_cxx13new_allocatorISt6vectorIiSaIiEEE10deallocateEPS3_m
	.weak_definition __ZN9__gnu_cxx13new_allocatorISt6vectorIiSaIiEEE10deallocateEPS3_m
__ZN9__gnu_cxx13new_allocatorISt6vectorIiSaIiEEE10deallocateEPS3_m:
LFB2976:
	stp	x29, x30, [sp, -48]!
LCFI216:
	mov	x29, sp
	str	x0, [sp, 40]
	str	x1, [sp, 32]
	str	x2, [sp, 24]
	ldr	x1, [sp, 24]
	mov	x0, x1
	lsl	x0, x0, 1
	add	x0, x0, x1
	lsl	x0, x0, 3
	mov	x1, x0
	ldr	x0, [sp, 32]
	bl	__ZdlPvm
	ldp	x29, x30, [sp], 48
LCFI217:
	ret
LFE2976:
	.align	2
	.globl __ZNSt12_Destroy_auxILb0EE9__destroyIPSt6vectorIiSaIiEEEEvT_S6_
	.weak_definition __ZNSt12_Destroy_auxILb0EE9__destroyIPSt6vectorIiSaIiEEEEvT_S6_
__ZNSt12_Destroy_auxILb0EE9__destroyIPSt6vectorIiSaIiEEEEvT_S6_:
LFB2977:
	stp	x29, x30, [sp, -32]!
LCFI218:
	mov	x29, sp
	str	x0, [sp, 24]
	str	x1, [sp, 16]
	b	L255
L256:
	ldr	x0, [sp, 24]
	bl	__ZSt11__addressofISt6vectorIiSaIiEEEPT_RS3_
	bl	__ZSt8_DestroyISt6vectorIiSaIiEEEvPT_
	ldr	x0, [sp, 24]
	add	x0, x0, 24
	str	x0, [sp, 24]
L255:
	ldr	x1, [sp, 24]
	ldr	x0, [sp, 16]
	cmp	x1, x0
	bne	L256
	nop
	nop
	ldp	x29, x30, [sp], 32
LCFI219:
	ret
LFE2977:
	.align	2
	.globl __ZNSt6vectorIS_IiSaIiEESaIS1_EE11_S_max_sizeERKS2_
	.weak_definition __ZNSt6vectorIS_IiSaIiEESaIS1_EE11_S_max_sizeERKS2_
__ZNSt6vectorIS_IiSaIiEESaIS1_EE11_S_max_sizeERKS2_:
LFB2978:
	stp	x29, x30, [sp, -48]!
LCFI220:
	mov	x29, sp
	str	x0, [sp, 24]
	mov	x0, 6148914691236517205
	movk	x0, 0x555, lsl 48
	str	x0, [sp, 40]
	ldr	x0, [sp, 24]
	bl	__ZNSt16allocator_traitsISaISt6vectorIiSaIiEEEE8max_sizeERKS3_
	str	x0, [sp, 32]
	add	x1, sp, 32
	add	x0, sp, 40
	bl	__ZSt3minImERKT_S2_S2_
	ldr	x0, [x0]
	ldp	x29, x30, [sp], 48
LCFI221:
	ret
LFE2978:
	.align	2
	.globl __ZSt25__uninitialized_default_nIPSt6vectorIiSaIiEEmET_S4_T0_
	.weak_definition __ZSt25__uninitialized_default_nIPSt6vectorIiSaIiEEmET_S4_T0_
__ZSt25__uninitialized_default_nIPSt6vectorIiSaIiEEmET_S4_T0_:
LFB2979:
	stp	x29, x30, [sp, -48]!
LCFI222:
	mov	x29, sp
	str	x0, [sp, 24]
	str	x1, [sp, 16]
	mov	w0, 1
	strb	w0, [sp, 47]
	ldr	x1, [sp, 16]
	ldr	x0, [sp, 24]
	bl	__ZNSt27__uninitialized_default_n_1ILb0EE18__uninit_default_nIPSt6vectorIiSaIiEEmEET_S6_T0_
	ldp	x29, x30, [sp], 48
LCFI223:
	ret
LFE2979:
	.align	2
	.globl __ZSt3maxImERKT_S2_S2_
	.weak_definition __ZSt3maxImERKT_S2_S2_
__ZSt3maxImERKT_S2_S2_:
LFB2980:
	sub	sp, sp, #16
LCFI224:
	str	x0, [sp, 8]
	str	x1, [sp]
	ldr	x0, [sp, 8]
	ldr	x1, [x0]
	ldr	x0, [sp]
	ldr	x0, [x0]
	cmp	x1, x0
	bcs	L262
	ldr	x0, [sp]
	b	L263
L262:
	ldr	x0, [sp, 8]
L263:
	add	sp, sp, 16
LCFI225:
	ret
LFE2980:
	.align	2
	.globl __ZNSt16allocator_traitsISaISt6vectorIiSaIiEEEE8allocateERS3_m
	.weak_definition __ZNSt16allocator_traitsISaISt6vectorIiSaIiEEEE8allocateERS3_m
__ZNSt16allocator_traitsISaISt6vectorIiSaIiEEEE8allocateERS3_m:
LFB2981:
	stp	x29, x30, [sp, -32]!
LCFI226:
	mov	x29, sp
	str	x0, [sp, 24]
	str	x1, [sp, 16]
	mov	x2, 0
	ldr	x1, [sp, 16]
	ldr	x0, [sp, 24]
	bl	__ZN9__gnu_cxx13new_allocatorISt6vectorIiSaIiEEE8allocateEmPKv
	ldp	x29, x30, [sp], 32
LCFI227:
	ret
LFE2981:
	.align	2
	.globl __ZNSt6vectorIS_IiSaIiEESaIS1_EE14_S_do_relocateEPS1_S4_S4_RS2_St17integral_constantIbLb1EE
	.weak_definition __ZNSt6vectorIS_IiSaIiEESaIS1_EE14_S_do_relocateEPS1_S4_S4_RS2_St17integral_constantIbLb1EE
__ZNSt6vectorIS_IiSaIiEESaIS1_EE14_S_do_relocateEPS1_S4_S4_RS2_St17integral_constantIbLb1EE:
LFB2982:
	stp	x29, x30, [sp, -64]!
LCFI228:
	mov	x29, sp
	str	x0, [sp, 56]
	str	x1, [sp, 48]
	str	x2, [sp, 40]
	str	x3, [sp, 32]
	strb	w4, [sp, 24]
	ldr	x3, [sp, 32]
	ldr	x2, [sp, 40]
	ldr	x1, [sp, 48]
	ldr	x0, [sp, 56]
	bl	__ZSt12__relocate_aIPSt6vectorIiSaIiEES3_SaIS2_EET0_T_S6_S5_RT1_
	ldp	x29, x30, [sp], 64
LCFI229:
	ret
LFE2982:
	.align	2
	.globl __ZNSt6vectorIiSaIiEE11_S_max_sizeERKS0_
	.weak_definition __ZNSt6vectorIiSaIiEE11_S_max_sizeERKS0_
__ZNSt6vectorIiSaIiEE11_S_max_sizeERKS0_:
LFB2983:
	stp	x29, x30, [sp, -48]!
LCFI230:
	mov	x29, sp
	str	x0, [sp, 24]
	mov	x0, 2305843009213693951
	str	x0, [sp, 40]
	ldr	x0, [sp, 24]
	bl	__ZNSt16allocator_traitsISaIiEE8max_sizeERKS0_
	str	x0, [sp, 32]
	add	x1, sp, 32
	add	x0, sp, 40
	bl	__ZSt3minImERKT_S2_S2_
	ldr	x0, [x0]
	ldp	x29, x30, [sp], 48
LCFI231:
	ret
LFE2983:
	.align	2
	.globl __ZNKSt12_Vector_baseIiSaIiEE19_M_get_Tp_allocatorEv
	.weak_definition __ZNKSt12_Vector_baseIiSaIiEE19_M_get_Tp_allocatorEv
__ZNKSt12_Vector_baseIiSaIiEE19_M_get_Tp_allocatorEv:
LFB2984:
	sub	sp, sp, #16
LCFI232:
	str	x0, [sp, 8]
	ldr	x0, [sp, 8]
	add	sp, sp, 16
LCFI233:
	ret
LFE2984:
	.align	2
	.globl __ZSt25__uninitialized_default_nIPimET_S1_T0_
	.weak_definition __ZSt25__uninitialized_default_nIPimET_S1_T0_
__ZSt25__uninitialized_default_nIPimET_S1_T0_:
LFB2985:
	stp	x29, x30, [sp, -48]!
LCFI234:
	mov	x29, sp
	str	x0, [sp, 24]
	str	x1, [sp, 16]
	mov	w0, 1
	strb	w0, [sp, 47]
	ldr	x1, [sp, 16]
	ldr	x0, [sp, 24]
	bl	__ZNSt27__uninitialized_default_n_1ILb1EE18__uninit_default_nIPimEET_S3_T0_
	ldp	x29, x30, [sp], 48
LCFI235:
	ret
LFE2985:
	.align	2
	.globl __ZNSt16allocator_traitsISaIiEE8allocateERS0_m
	.weak_definition __ZNSt16allocator_traitsISaIiEE8allocateERS0_m
__ZNSt16allocator_traitsISaIiEE8allocateERS0_m:
LFB2986:
	stp	x29, x30, [sp, -32]!
LCFI236:
	mov	x29, sp
	str	x0, [sp, 24]
	str	x1, [sp, 16]
	mov	x2, 0
	ldr	x1, [sp, 16]
	ldr	x0, [sp, 24]
	bl	__ZN9__gnu_cxx13new_allocatorIiE8allocateEmPKv
	ldp	x29, x30, [sp], 32
LCFI237:
	ret
LFE2986:
	.align	2
	.globl __ZNSt16allocator_traitsISaIiEE10deallocateERS0_Pim
	.weak_definition __ZNSt16allocator_traitsISaIiEE10deallocateERS0_Pim
__ZNSt16allocator_traitsISaIiEE10deallocateERS0_Pim:
LFB2987:
	stp	x29, x30, [sp, -48]!
LCFI238:
	mov	x29, sp
	str	x0, [sp, 40]
	str	x1, [sp, 32]
	str	x2, [sp, 24]
	ldr	x2, [sp, 24]
	ldr	x1, [sp, 32]
	ldr	x0, [sp, 40]
	bl	__ZN9__gnu_cxx13new_allocatorIiE10deallocateEPim
	nop
	ldp	x29, x30, [sp], 48
LCFI239:
	ret
LFE2987:
	.align	2
	.globl __ZNSt6vectorIiSaIiEE14_S_do_relocateEPiS2_S2_RS0_St17integral_constantIbLb1EE
	.weak_definition __ZNSt6vectorIiSaIiEE14_S_do_relocateEPiS2_S2_RS0_St17integral_constantIbLb1EE
__ZNSt6vectorIiSaIiEE14_S_do_relocateEPiS2_S2_RS0_St17integral_constantIbLb1EE:
LFB2988:
	stp	x29, x30, [sp, -64]!
LCFI240:
	mov	x29, sp
	str	x0, [sp, 56]
	str	x1, [sp, 48]
	str	x2, [sp, 40]
	str	x3, [sp, 32]
	strb	w4, [sp, 24]
	ldr	x3, [sp, 32]
	ldr	x2, [sp, 40]
	ldr	x1, [sp, 48]
	ldr	x0, [sp, 56]
	bl	__ZSt12__relocate_aIPiS0_SaIiEET0_T_S3_S2_RT1_
	ldp	x29, x30, [sp], 64
LCFI241:
	ret
LFE2988:
	.align	2
	.globl __ZSt8_DestroyIPiEvT_S1_
	.weak_definition __ZSt8_DestroyIPiEvT_S1_
__ZSt8_DestroyIPiEvT_S1_:
LFB2989:
	stp	x29, x30, [sp, -32]!
LCFI242:
	mov	x29, sp
	str	x0, [sp, 24]
	str	x1, [sp, 16]
	ldr	x1, [sp, 16]
	ldr	x0, [sp, 24]
	bl	__ZNSt12_Destroy_auxILb1EE9__destroyIPiEEvT_S3_
	nop
	ldp	x29, x30, [sp], 32
LCFI243:
	ret
LFE2989:
	.align	2
	.globl __ZNSaIiEC2Ev
	.weak_definition __ZNSaIiEC2Ev
__ZNSaIiEC2Ev:
LFB2991:
	stp	x29, x30, [sp, -32]!
LCFI244:
	mov	x29, sp
	str	x0, [sp, 24]
	ldr	x0, [sp, 24]
	bl	__ZN9__gnu_cxx13new_allocatorIiEC2Ev
	nop
	ldp	x29, x30, [sp], 32
LCFI245:
	ret
LFE2991:
	.align	2
	.globl __ZNSt11_Deque_baseIiSaIiEE16_Deque_impl_dataC2Ev
	.weak_definition __ZNSt11_Deque_baseIiSaIiEE16_Deque_impl_dataC2Ev
__ZNSt11_Deque_baseIiSaIiEE16_Deque_impl_dataC2Ev:
LFB2994:
	stp	x29, x30, [sp, -32]!
LCFI246:
	mov	x29, sp
	str	x0, [sp, 24]
	ldr	x0, [sp, 24]
	str	xzr, [x0]
	ldr	x0, [sp, 24]
	str	xzr, [x0, 8]
	ldr	x0, [sp, 24]
	add	x0, x0, 16
	bl	__ZNSt15_Deque_iteratorIiRiPiEC1Ev
	ldr	x0, [sp, 24]
	add	x0, x0, 48
	bl	__ZNSt15_Deque_iteratorIiRiPiEC1Ev
	nop
	ldp	x29, x30, [sp], 32
LCFI247:
	ret
LFE2994:
	.align	2
	.globl __ZN9__gnu_cxx13new_allocatorIiED2Ev
	.weak_definition __ZN9__gnu_cxx13new_allocatorIiED2Ev
__ZN9__gnu_cxx13new_allocatorIiED2Ev:
LFB2997:
	sub	sp, sp, #16
LCFI248:
	str	x0, [sp, 8]
	nop
	add	sp, sp, 16
LCFI249:
	ret
LFE2997:
	.align	2
	.globl __ZNSt11_Deque_baseIiSaIiEE15_M_allocate_mapEm
	.weak_definition __ZNSt11_Deque_baseIiSaIiEE15_M_allocate_mapEm
__ZNSt11_Deque_baseIiSaIiEE15_M_allocate_mapEm:
LFB2999:
	stp	x29, x30, [sp, -64]!
LCFI250:
	mov	x29, sp
	str	x19, [sp, 16]
LCFI251:
	str	x0, [sp, 40]
	str	x1, [sp, 32]
	add	x0, sp, 56
	mov	x8, x0
	ldr	x0, [sp, 40]
	bl	__ZNKSt11_Deque_baseIiSaIiEE20_M_get_map_allocatorEv
	add	x0, sp, 56
	ldr	x1, [sp, 32]
LEHB39:
	bl	__ZNSt16allocator_traitsISaIPiEE8allocateERS1_m
LEHE39:
	mov	x19, x0
	nop
	add	x0, sp, 56
	bl	__ZNSaIPiED1Ev
	mov	x0, x19
	b	L287
L286:
	mov	x19, x0
	add	x0, sp, 56
	bl	__ZNSaIPiED1Ev
	mov	x0, x19
LEHB40:
	bl	__Unwind_Resume
LEHE40:
L287:
	ldr	x19, [sp, 16]
	ldp	x29, x30, [sp], 64
LCFI252:
	ret
LFE2999:
	.section __DATA,__gcc_except_tab
_GCC_except_table17:
LLSDA2999:
	.byte	0xff
	.byte	0xff
	.byte	0x1
	.uleb128 LLSDACSE2999-LLSDACSB2999
LLSDACSB2999:
	.uleb128 LEHB39-LFB2999
	.uleb128 LEHE39-LEHB39
	.uleb128 L286-LFB2999
	.uleb128 0
	.uleb128 LEHB40-LFB2999
	.uleb128 LEHE40-LEHB40
	.uleb128 0
	.uleb128 0
LLSDACSE2999:
	.text
	.align	2
	.globl __ZNSt11_Deque_baseIiSaIiEE15_M_create_nodesEPPiS3_
	.weak_definition __ZNSt11_Deque_baseIiSaIiEE15_M_create_nodesEPPiS3_
__ZNSt11_Deque_baseIiSaIiEE15_M_create_nodesEPPiS3_:
LFB3000:
	stp	x29, x30, [sp, -80]!
LCFI253:
	mov	x29, sp
	str	x19, [sp, 16]
LCFI254:
	str	x0, [sp, 56]
	str	x1, [sp, 48]
	str	x2, [sp, 40]
	ldr	x0, [sp, 48]
	str	x0, [sp, 72]
	b	L289
L290:
	ldr	x0, [sp, 56]
LEHB41:
	bl	__ZNSt11_Deque_baseIiSaIiEE16_M_allocate_nodeEv
LEHE41:
	mov	x1, x0
	ldr	x0, [sp, 72]
	str	x1, [x0]
	ldr	x0, [sp, 72]
	add	x0, x0, 8
	str	x0, [sp, 72]
L289:
	ldr	x1, [sp, 72]
	ldr	x0, [sp, 40]
	cmp	x1, x0
	bcc	L290
	b	L295
L293:
	bl	___cxa_begin_catch
	ldr	x2, [sp, 72]
	ldr	x1, [sp, 48]
	ldr	x0, [sp, 56]
	bl	__ZNSt11_Deque_baseIiSaIiEE16_M_destroy_nodesEPPiS3_
LEHB42:
	bl	___cxa_rethrow
LEHE42:
L294:
	mov	x19, x0
	bl	___cxa_end_catch
	mov	x0, x19
LEHB43:
	bl	__Unwind_Resume
LEHE43:
L295:
	ldr	x19, [sp, 16]
	ldp	x29, x30, [sp], 80
LCFI255:
	ret
LFE3000:
	.section __DATA,__gcc_except_tab
_GCC_except_table18:
	.align	3
LLSDA3000:
	.byte	0xff
	.byte	0
	.uleb128 LLSDATT3000-LLSDATTD3000
LLSDATTD3000:
	.byte	0x1
	.uleb128 LLSDACSE3000-LLSDACSB3000
LLSDACSB3000:
	.uleb128 LEHB41-LFB3000
	.uleb128 LEHE41-LEHB41
	.uleb128 L293-LFB3000
	.uleb128 0x1
	.uleb128 LEHB42-LFB3000
	.uleb128 LEHE42-LEHB42
	.uleb128 L294-LFB3000
	.uleb128 0
	.uleb128 LEHB43-LFB3000
	.uleb128 LEHE43-LEHB43
	.uleb128 0
	.uleb128 0
LLSDACSE3000:
	.byte	0x1
	.byte	0
	.align	3
	.xword	0
LLSDATT3000:
	.text
	.align	2
	.globl __ZNSt15_Deque_iteratorIiRiPiE11_M_set_nodeEPS1_
	.weak_definition __ZNSt15_Deque_iteratorIiRiPiE11_M_set_nodeEPS1_
__ZNSt15_Deque_iteratorIiRiPiE11_M_set_nodeEPS1_:
LFB3001:
	stp	x29, x30, [sp, -48]!
LCFI256:
	mov	x29, sp
	str	x19, [sp, 16]
LCFI257:
	str	x0, [sp, 40]
	str	x1, [sp, 32]
	ldr	x0, [sp, 40]
	ldr	x1, [sp, 32]
	str	x1, [x0, 24]
	ldr	x0, [sp, 32]
	ldr	x1, [x0]
	ldr	x0, [sp, 40]
	str	x1, [x0, 8]
	ldr	x0, [sp, 40]
	ldr	x19, [x0, 8]
	bl	__ZNSt15_Deque_iteratorIiRiPiE14_S_buffer_sizeEv
	lsl	x0, x0, 2
	add	x1, x19, x0
	ldr	x0, [sp, 40]
	str	x1, [x0, 16]
	nop
	ldr	x19, [sp, 16]
	ldp	x29, x30, [sp], 48
LCFI258:
	ret
LFE3001:
	.align	2
	.globl __ZNSt11_Deque_baseIiSaIiEE18_M_deallocate_nodeEPi
	.weak_definition __ZNSt11_Deque_baseIiSaIiEE18_M_deallocate_nodeEPi
__ZNSt11_Deque_baseIiSaIiEE18_M_deallocate_nodeEPi:
LFB3002:
	stp	x29, x30, [sp, -48]!
LCFI259:
	mov	x29, sp
	str	x19, [sp, 16]
LCFI260:
	str	x0, [sp, 40]
	str	x1, [sp, 32]
	ldr	x19, [sp, 40]
	mov	x0, 4
	bl	__ZSt16__deque_buf_sizem
	mov	x2, x0
	ldr	x1, [sp, 32]
	mov	x0, x19
	bl	__ZNSt16allocator_traitsISaIiEE10deallocateERS0_Pim
	nop
	ldr	x19, [sp, 16]
	ldp	x29, x30, [sp], 48
LCFI261:
	ret
LFE3002:
	.align	2
	.globl __ZNKSt11_Deque_baseIiSaIiEE20_M_get_map_allocatorEv
	.weak_definition __ZNKSt11_Deque_baseIiSaIiEE20_M_get_map_allocatorEv
__ZNKSt11_Deque_baseIiSaIiEE20_M_get_map_allocatorEv:
LFB3003:
	stp	x29, x30, [sp, -48]!
LCFI262:
	mov	x29, sp
	str	x19, [sp, 16]
LCFI263:
	mov	x19, x8
	str	x0, [sp, 40]
	ldr	x0, [sp, 40]
	bl	__ZNKSt11_Deque_baseIiSaIiEE19_M_get_Tp_allocatorEv
	mov	x1, x0
	mov	x0, x19
	bl	__ZNSaIPiEC1IiEERKSaIT_E
	mov	x0, x19
	ldr	x19, [sp, 16]
	ldp	x29, x30, [sp], 48
LCFI264:
	ret
LFE3003:
	.align	2
	.globl __ZNSaIPiED1Ev
	.weak_definition __ZNSaIPiED1Ev
__ZNSaIPiED1Ev:
LFB3006:
	stp	x29, x30, [sp, -32]!
LCFI265:
	mov	x29, sp
	str	x0, [sp, 24]
	ldr	x0, [sp, 24]
	bl	__ZN9__gnu_cxx13new_allocatorIPiED2Ev
	nop
	ldp	x29, x30, [sp], 32
LCFI266:
	ret
LFE3006:
	.align	2
	.globl __ZNSt16allocator_traitsISaIPiEE10deallocateERS1_PS0_m
	.weak_definition __ZNSt16allocator_traitsISaIPiEE10deallocateERS1_PS0_m
__ZNSt16allocator_traitsISaIPiEE10deallocateERS1_PS0_m:
LFB3007:
	stp	x29, x30, [sp, -48]!
LCFI267:
	mov	x29, sp
	str	x0, [sp, 40]
	str	x1, [sp, 32]
	str	x2, [sp, 24]
	ldr	x2, [sp, 24]
	ldr	x1, [sp, 32]
	ldr	x0, [sp, 40]
	bl	__ZN9__gnu_cxx13new_allocatorIPiE10deallocateEPS1_m
	nop
	ldp	x29, x30, [sp], 48
LCFI268:
	ret
LFE3007:
	.align	2
	.globl __ZSt7forwardIRKiEOT_RNSt16remove_referenceIS2_E4typeE
	.weak_definition __ZSt7forwardIRKiEOT_RNSt16remove_referenceIS2_E4typeE
__ZSt7forwardIRKiEOT_RNSt16remove_referenceIS2_E4typeE:
LFB3009:
	sub	sp, sp, #16
LCFI269:
	str	x0, [sp, 8]
	ldr	x0, [sp, 8]
	add	sp, sp, 16
LCFI270:
	ret
LFE3009:
	.align	2
	.globl __ZN9__gnu_cxx13new_allocatorIiE9constructIiJRKiEEEvPT_DpOT0_
	.weak_definition __ZN9__gnu_cxx13new_allocatorIiE9constructIiJRKiEEEvPT_DpOT0_
__ZN9__gnu_cxx13new_allocatorIiE9constructIiJRKiEEEvPT_DpOT0_:
LFB3010:
	stp	x29, x30, [sp, -64]!
LCFI271:
	mov	x29, sp
	str	x19, [sp, 16]
LCFI272:
	str	x0, [sp, 56]
	str	x1, [sp, 48]
	str	x2, [sp, 40]
	ldr	x0, [sp, 40]
	bl	__ZSt7forwardIRKiEOT_RNSt16remove_referenceIS2_E4typeE
	ldr	w19, [x0]
	ldr	x0, [sp, 48]
	mov	x1, x0
	mov	x0, 4
	bl	__ZnwmPv
	str	w19, [x0]
	nop
	ldr	x19, [sp, 16]
	ldp	x29, x30, [sp], 64
LCFI273:
	ret
LFE3010:
	.align	2
	.globl __ZNKSt5dequeIiSaIiEE4sizeEv
	.weak_definition __ZNKSt5dequeIiSaIiEE4sizeEv
__ZNKSt5dequeIiSaIiEE4sizeEv:
LFB3011:
	stp	x29, x30, [sp, -32]!
LCFI274:
	mov	x29, sp
	str	x0, [sp, 24]
	ldr	x0, [sp, 24]
	add	x2, x0, 48
	ldr	x0, [sp, 24]
	add	x0, x0, 16
	mov	x1, x0
	mov	x0, x2
	bl	__ZStmiRKSt15_Deque_iteratorIiRiPiES4_
	ldp	x29, x30, [sp], 32
LCFI275:
	ret
LFE3011:
	.align	2
	.globl __ZNKSt5dequeIiSaIiEE8max_sizeEv
	.weak_definition __ZNKSt5dequeIiSaIiEE8max_sizeEv
__ZNKSt5dequeIiSaIiEE8max_sizeEv:
LFB3012:
	stp	x29, x30, [sp, -32]!
LCFI276:
	mov	x29, sp
	str	x0, [sp, 24]
	ldr	x0, [sp, 24]
	bl	__ZNKSt11_Deque_baseIiSaIiEE19_M_get_Tp_allocatorEv
	bl	__ZNSt5dequeIiSaIiEE11_S_max_sizeERKS0_
	ldp	x29, x30, [sp], 32
LCFI277:
	ret
LFE3012:
	.align	2
	.globl __ZNSt5dequeIiSaIiEE22_M_reserve_map_at_backEm
	.weak_definition __ZNSt5dequeIiSaIiEE22_M_reserve_map_at_backEm
__ZNSt5dequeIiSaIiEE22_M_reserve_map_at_backEm:
LFB3013:
	stp	x29, x30, [sp, -32]!
LCFI278:
	mov	x29, sp
	str	x0, [sp, 24]
	str	x1, [sp, 16]
	ldr	x0, [sp, 16]
	add	x1, x0, 1
	ldr	x0, [sp, 24]
	ldr	x0, [x0, 8]
	ldr	x2, [sp, 24]
	ldr	x3, [x2, 72]
	ldr	x2, [sp, 24]
	ldr	x2, [x2]
	sub	x2, x3, x2
	asr	x2, x2, 3
	sub	x0, x0, x2
	cmp	x1, x0
	bls	L311
	mov	w2, 0
	ldr	x1, [sp, 16]
	ldr	x0, [sp, 24]
	bl	__ZNSt5dequeIiSaIiEE17_M_reallocate_mapEmb
L311:
	nop
	ldp	x29, x30, [sp], 32
LCFI279:
	ret
LFE3013:
	.align	2
	.globl __ZNSt11_Deque_baseIiSaIiEE16_M_allocate_nodeEv
	.weak_definition __ZNSt11_Deque_baseIiSaIiEE16_M_allocate_nodeEv
__ZNSt11_Deque_baseIiSaIiEE16_M_allocate_nodeEv:
LFB3014:
	stp	x29, x30, [sp, -48]!
LCFI280:
	mov	x29, sp
	str	x19, [sp, 16]
LCFI281:
	str	x0, [sp, 40]
	ldr	x19, [sp, 40]
	mov	x0, 4
	bl	__ZSt16__deque_buf_sizem
	mov	x1, x0
	mov	x0, x19
	bl	__ZNSt16allocator_traitsISaIiEE8allocateERS0_m
	ldr	x19, [sp, 16]
	ldp	x29, x30, [sp], 48
LCFI282:
	ret
LFE3014:
	.align	2
	.globl __ZN9__gnu_cxx13new_allocatorIiE7destroyIiEEvPT_
	.weak_definition __ZN9__gnu_cxx13new_allocatorIiE7destroyIiEEvPT_
__ZN9__gnu_cxx13new_allocatorIiE7destroyIiEEvPT_:
LFB3015:
	sub	sp, sp, #16
LCFI283:
	str	x0, [sp, 8]
	str	x1, [sp]
	nop
	add	sp, sp, 16
LCFI284:
	ret
LFE3015:
	.align	2
	.globl __ZNSaISt6vectorIiSaIiEEEC2ERKS2_
	.weak_definition __ZNSaISt6vectorIiSaIiEEEC2ERKS2_
__ZNSaISt6vectorIiSaIiEEEC2ERKS2_:
LFB3017:
	stp	x29, x30, [sp, -32]!
LCFI285:
	mov	x29, sp
	str	x0, [sp, 24]
	str	x1, [sp, 16]
	ldr	x1, [sp, 16]
	ldr	x0, [sp, 24]
	bl	__ZN9__gnu_cxx13new_allocatorISt6vectorIiSaIiEEEC2ERKS4_
	nop
	ldp	x29, x30, [sp], 32
LCFI286:
	ret
LFE3017:
	.align	2
	.globl __ZNSaISt6vectorIiSaIiEEEC1ERKS2_
	.weak_definition __ZNSaISt6vectorIiSaIiEEEC1ERKS2_
__ZNSaISt6vectorIiSaIiEEEC1ERKS2_:
LFB3018:
	stp	x29, x30, [sp, -32]!
LCFI287:
	mov	x29, sp
	str	x0, [sp, 24]
	str	x1, [sp, 16]
	ldr	x1, [sp, 16]
	ldr	x0, [sp, 24]
	bl	__ZN9__gnu_cxx13new_allocatorISt6vectorIiSaIiEEEC2ERKS4_
	nop
	ldp	x29, x30, [sp], 32
LCFI288:
	ret
LFE3018:
	.align	2
	.globl __ZNSt20__uninitialized_copyILb0EE13__uninit_copyIN9__gnu_cxx17__normal_iteratorIPKSt6vectorIiSaIiEES4_IS6_SaIS6_EEEEPS6_EET0_T_SE_SD_
	.weak_definition __ZNSt20__uninitialized_copyILb0EE13__uninit_copyIN9__gnu_cxx17__normal_iteratorIPKSt6vectorIiSaIiEES4_IS6_SaIS6_EEEEPS6_EET0_T_SE_SD_
__ZNSt20__uninitialized_copyILb0EE13__uninit_copyIN9__gnu_cxx17__normal_iteratorIPKSt6vectorIiSaIiEES4_IS6_SaIS6_EEEEPS6_EET0_T_SE_SD_:
LFB3019:
	stp	x29, x30, [sp, -80]!
LCFI289:
	mov	x29, sp
	str	x19, [sp, 16]
LCFI290:
	str	x0, [sp, 56]
	str	x1, [sp, 48]
	str	x2, [sp, 40]
	ldr	x0, [sp, 40]
	str	x0, [sp, 72]
	b	L318
L319:
	ldr	x0, [sp, 72]
	bl	__ZSt11__addressofISt6vectorIiSaIiEEEPT_RS3_
	mov	x19, x0
	add	x0, sp, 56
	bl	__ZNK9__gnu_cxx17__normal_iteratorIPKSt6vectorIiSaIiEES1_IS3_SaIS3_EEEdeEv
	mov	x1, x0
	mov	x0, x19
LEHB44:
	bl	__ZSt10_ConstructISt6vectorIiSaIiEEJRKS2_EEvPT_DpOT0_
LEHE44:
	add	x0, sp, 56
	bl	__ZN9__gnu_cxx17__normal_iteratorIPKSt6vectorIiSaIiEES1_IS3_SaIS3_EEEppEv
	ldr	x0, [sp, 72]
	add	x0, x0, 24
	str	x0, [sp, 72]
L318:
	add	x1, sp, 48
	add	x0, sp, 56
	bl	__ZN9__gnu_cxxneIPKSt6vectorIiSaIiEES1_IS3_SaIS3_EEEEbRKNS_17__normal_iteratorIT_T0_EESD_
	and	w0, w0, 255
	cmp	w0, 0
	bne	L319
	ldr	x0, [sp, 72]
	b	L325
L323:
	bl	___cxa_begin_catch
	ldr	x1, [sp, 72]
	ldr	x0, [sp, 40]
LEHB45:
	bl	__ZSt8_DestroyIPSt6vectorIiSaIiEEEvT_S4_
	bl	___cxa_rethrow
LEHE45:
L324:
	mov	x19, x0
	bl	___cxa_end_catch
	mov	x0, x19
LEHB46:
	bl	__Unwind_Resume
LEHE46:
L325:
	ldr	x19, [sp, 16]
	ldp	x29, x30, [sp], 80
LCFI291:
	ret
LFE3019:
	.section __DATA,__gcc_except_tab
_GCC_except_table19:
	.align	3
LLSDA3019:
	.byte	0xff
	.byte	0
	.uleb128 LLSDATT3019-LLSDATTD3019
LLSDATTD3019:
	.byte	0x1
	.uleb128 LLSDACSE3019-LLSDACSB3019
LLSDACSB3019:
	.uleb128 LEHB44-LFB3019
	.uleb128 LEHE44-LEHB44
	.uleb128 L323-LFB3019
	.uleb128 0x1
	.uleb128 LEHB45-LFB3019
	.uleb128 LEHE45-LEHB45
	.uleb128 L324-LFB3019
	.uleb128 0
	.uleb128 LEHB46-LFB3019
	.uleb128 LEHE46-LEHB46
	.uleb128 0
	.uleb128 0
LLSDACSE3019:
	.byte	0x1
	.byte	0
	.align	3
	.xword	0
LLSDATT3019:
	.text
	.align	2
	.globl __ZSt11__addressofISt6vectorIiSaIiEEEPT_RS3_
	.weak_definition __ZSt11__addressofISt6vectorIiSaIiEEEPT_RS3_
__ZSt11__addressofISt6vectorIiSaIiEEEPT_RS3_:
LFB3064:
	sub	sp, sp, #16
LCFI292:
	str	x0, [sp, 8]
	ldr	x0, [sp, 8]
	add	sp, sp, 16
LCFI293:
	ret
LFE3064:
	.align	2
	.globl __ZSt8_DestroyISt6vectorIiSaIiEEEvPT_
	.weak_definition __ZSt8_DestroyISt6vectorIiSaIiEEEvPT_
__ZSt8_DestroyISt6vectorIiSaIiEEEvPT_:
LFB3065:
	stp	x29, x30, [sp, -32]!
LCFI294:
	mov	x29, sp
	str	x0, [sp, 24]
	ldr	x0, [sp, 24]
	bl	__ZNSt6vectorIiSaIiEED1Ev
	nop
	ldp	x29, x30, [sp], 32
LCFI295:
	ret
LFE3065:
	.align	2
	.globl __ZNSt16allocator_traitsISaISt6vectorIiSaIiEEEE8max_sizeERKS3_
	.weak_definition __ZNSt16allocator_traitsISaISt6vectorIiSaIiEEEE8max_sizeERKS3_
__ZNSt16allocator_traitsISaISt6vectorIiSaIiEEEE8max_sizeERKS3_:
LFB3066:
	stp	x29, x30, [sp, -32]!
LCFI296:
	mov	x29, sp
	str	x0, [sp, 24]
	ldr	x0, [sp, 24]
	bl	__ZNK9__gnu_cxx13new_allocatorISt6vectorIiSaIiEEE8max_sizeEv
	ldp	x29, x30, [sp], 32
LCFI297:
	ret
LFE3066:
	.align	2
	.globl __ZSt3minImERKT_S2_S2_
	.weak_definition __ZSt3minImERKT_S2_S2_
__ZSt3minImERKT_S2_S2_:
LFB3067:
	sub	sp, sp, #16
LCFI298:
	str	x0, [sp, 8]
	str	x1, [sp]
	ldr	x0, [sp]
	ldr	x1, [x0]
	ldr	x0, [sp, 8]
	ldr	x0, [x0]
	cmp	x1, x0
	bcs	L332
	ldr	x0, [sp]
	b	L333
L332:
	ldr	x0, [sp, 8]
L333:
	add	sp, sp, 16
LCFI299:
	ret
LFE3067:
	.align	2
	.globl __ZNSt27__uninitialized_default_n_1ILb0EE18__uninit_default_nIPSt6vectorIiSaIiEEmEET_S6_T0_
	.weak_definition __ZNSt27__uninitialized_default_n_1ILb0EE18__uninit_default_nIPSt6vectorIiSaIiEEmEET_S6_T0_
__ZNSt27__uninitialized_default_n_1ILb0EE18__uninit_default_nIPSt6vectorIiSaIiEEmEET_S6_T0_:
LFB3068:
	stp	x29, x30, [sp, -48]!
LCFI300:
	mov	x29, sp
	str	x0, [sp, 24]
	str	x1, [sp, 16]
	ldr	x0, [sp, 24]
	str	x0, [sp, 40]
	b	L335
L336:
	ldr	x0, [sp, 40]
	bl	__ZSt11__addressofISt6vectorIiSaIiEEEPT_RS3_
	bl	__ZSt10_ConstructISt6vectorIiSaIiEEJEEvPT_DpOT0_
	ldr	x0, [sp, 16]
	sub	x0, x0, #1
	str	x0, [sp, 16]
	ldr	x0, [sp, 40]
	add	x0, x0, 24
	str	x0, [sp, 40]
L335:
	ldr	x0, [sp, 16]
	cmp	x0, 0
	bne	L336
	ldr	x0, [sp, 40]
	ldp	x29, x30, [sp], 48
LCFI301:
	ret
LFE3068:
	.align	2
	.globl __ZNK9__gnu_cxx13new_allocatorISt6vectorIiSaIiEEE11_M_max_sizeEv
	.weak_definition __ZNK9__gnu_cxx13new_allocatorISt6vectorIiSaIiEEE11_M_max_sizeEv
__ZNK9__gnu_cxx13new_allocatorISt6vectorIiSaIiEEE11_M_max_sizeEv:
LFB3070:
	sub	sp, sp, #16
LCFI302:
	str	x0, [sp, 8]
	mov	x0, 6148914691236517205
	movk	x0, 0x555, lsl 48
	add	sp, sp, 16
LCFI303:
	ret
LFE3070:
	.align	2
	.globl __ZN9__gnu_cxx13new_allocatorISt6vectorIiSaIiEEE8allocateEmPKv
	.weak_definition __ZN9__gnu_cxx13new_allocatorISt6vectorIiSaIiEEE8allocateEmPKv
__ZN9__gnu_cxx13new_allocatorISt6vectorIiSaIiEEE8allocateEmPKv:
LFB3069:
	stp	x29, x30, [sp, -48]!
LCFI304:
	mov	x29, sp
	str	x0, [sp, 40]
	str	x1, [sp, 32]
	str	x2, [sp, 24]
	ldr	x0, [sp, 40]
	bl	__ZNK9__gnu_cxx13new_allocatorISt6vectorIiSaIiEEE11_M_max_sizeEv
	mov	x1, x0
	ldr	x0, [sp, 32]
	cmp	x0, x1
	cset	w0, hi
	and	w0, w0, 255
	and	x0, x0, 255
	cmp	x0, 0
	cset	w0, ne
	and	w0, w0, 255
	cmp	w0, 0
	beq	L341
	ldr	x1, [sp, 32]
	mov	x0, -6148914691236517206
	movk	x0, 0xaaa, lsl 48
	cmp	x1, x0
	bls	L342
	bl	__ZSt28__throw_bad_array_new_lengthv
L342:
	bl	__ZSt17__throw_bad_allocv
L341:
	ldr	x1, [sp, 32]
	mov	x0, x1
	lsl	x0, x0, 1
	add	x0, x0, x1
	lsl	x0, x0, 3
	bl	__Znwm
	nop
	ldp	x29, x30, [sp], 48
LCFI305:
	ret
LFE3069:
	.align	2
	.globl __ZSt12__relocate_aIPSt6vectorIiSaIiEES3_SaIS2_EET0_T_S6_S5_RT1_
	.weak_definition __ZSt12__relocate_aIPSt6vectorIiSaIiEES3_SaIS2_EET0_T_S6_S5_RT1_
__ZSt12__relocate_aIPSt6vectorIiSaIiEES3_SaIS2_EET0_T_S6_S5_RT1_:
LFB3071:
	stp	x29, x30, [sp, -64]!
LCFI306:
	mov	x29, sp
	stp	x19, x20, [sp, 16]
LCFI307:
	str	x0, [sp, 56]
	str	x1, [sp, 48]
	str	x2, [sp, 40]
	str	x3, [sp, 32]
	ldr	x0, [sp, 56]
	bl	__ZSt12__niter_baseIPSt6vectorIiSaIiEEET_S4_
	mov	x19, x0
	ldr	x0, [sp, 48]
	bl	__ZSt12__niter_baseIPSt6vectorIiSaIiEEET_S4_
	mov	x20, x0
	ldr	x0, [sp, 40]
	bl	__ZSt12__niter_baseIPSt6vectorIiSaIiEEET_S4_
	ldr	x3, [sp, 32]
	mov	x2, x0
	mov	x1, x20
	mov	x0, x19
	bl	__ZSt14__relocate_a_1IPSt6vectorIiSaIiEES3_SaIS2_EET0_T_S6_S5_RT1_
	ldp	x19, x20, [sp, 16]
	ldp	x29, x30, [sp], 64
LCFI308:
	ret
LFE3071:
	.align	2
	.globl __ZNSt16allocator_traitsISaIiEE8max_sizeERKS0_
	.weak_definition __ZNSt16allocator_traitsISaIiEE8max_sizeERKS0_
__ZNSt16allocator_traitsISaIiEE8max_sizeERKS0_:
LFB3072:
	stp	x29, x30, [sp, -32]!
LCFI309:
	mov	x29, sp
	str	x0, [sp, 24]
	ldr	x0, [sp, 24]
	bl	__ZNK9__gnu_cxx13new_allocatorIiE8max_sizeEv
	ldp	x29, x30, [sp], 32
LCFI310:
	ret
LFE3072:
	.align	2
	.globl __ZSt11__addressofIiEPT_RS0_
	.weak_definition __ZSt11__addressofIiEPT_RS0_
__ZSt11__addressofIiEPT_RS0_:
LFB3074:
	sub	sp, sp, #16
LCFI311:
	str	x0, [sp, 8]
	ldr	x0, [sp, 8]
	add	sp, sp, 16
LCFI312:
	ret
LFE3074:
	.align	2
	.globl __ZNSt27__uninitialized_default_n_1ILb1EE18__uninit_default_nIPimEET_S3_T0_
	.weak_definition __ZNSt27__uninitialized_default_n_1ILb1EE18__uninit_default_nIPimEET_S3_T0_
__ZNSt27__uninitialized_default_n_1ILb1EE18__uninit_default_nIPimEET_S3_T0_:
LFB3073:
	stp	x29, x30, [sp, -48]!
LCFI313:
	mov	x29, sp
	str	x0, [sp, 24]
	str	x1, [sp, 16]
	ldr	x0, [sp, 16]
	cmp	x0, 0
	beq	L351
	ldr	x0, [sp, 24]
	bl	__ZSt11__addressofIiEPT_RS0_
	str	x0, [sp, 40]
	ldr	x0, [sp, 40]
	bl	__ZSt10_ConstructIiJEEvPT_DpOT0_
	ldr	x0, [sp, 24]
	add	x0, x0, 4
	str	x0, [sp, 24]
	ldr	x0, [sp, 16]
	sub	x0, x0, #1
	ldr	x2, [sp, 40]
	mov	x1, x0
	ldr	x0, [sp, 24]
	bl	__ZSt6fill_nIPimiET_S1_T0_RKT1_
	str	x0, [sp, 24]
L351:
	ldr	x0, [sp, 24]
	ldp	x29, x30, [sp], 48
LCFI314:
	ret
LFE3073:
	.align	2
	.globl __ZNK9__gnu_cxx13new_allocatorIiE11_M_max_sizeEv
	.weak_definition __ZNK9__gnu_cxx13new_allocatorIiE11_M_max_sizeEv
__ZNK9__gnu_cxx13new_allocatorIiE11_M_max_sizeEv:
LFB3076:
	sub	sp, sp, #16
LCFI315:
	str	x0, [sp, 8]
	mov	x0, 2305843009213693951
	add	sp, sp, 16
LCFI316:
	ret
LFE3076:
	.align	2
	.globl __ZN9__gnu_cxx13new_allocatorIiE8allocateEmPKv
	.weak_definition __ZN9__gnu_cxx13new_allocatorIiE8allocateEmPKv
__ZN9__gnu_cxx13new_allocatorIiE8allocateEmPKv:
LFB3075:
	stp	x29, x30, [sp, -48]!
LCFI317:
	mov	x29, sp
	str	x0, [sp, 40]
	str	x1, [sp, 32]
	str	x2, [sp, 24]
	ldr	x0, [sp, 40]
	bl	__ZNK9__gnu_cxx13new_allocatorIiE11_M_max_sizeEv
	mov	x1, x0
	ldr	x0, [sp, 32]
	cmp	x0, x1
	cset	w0, hi
	and	w0, w0, 255
	and	x0, x0, 255
	cmp	x0, 0
	cset	w0, ne
	and	w0, w0, 255
	cmp	w0, 0
	beq	L356
	ldr	x1, [sp, 32]
	mov	x0, 4611686018427387903
	cmp	x1, x0
	bls	L357
	bl	__ZSt28__throw_bad_array_new_lengthv
L357:
	bl	__ZSt17__throw_bad_allocv
L356:
	ldr	x0, [sp, 32]
	lsl	x0, x0, 2
	bl	__Znwm
	nop
	ldp	x29, x30, [sp], 48
LCFI318:
	ret
LFE3075:
	.align	2
	.globl __ZN9__gnu_cxx13new_allocatorIiE10deallocateEPim
	.weak_definition __ZN9__gnu_cxx13new_allocatorIiE10deallocateEPim
__ZN9__gnu_cxx13new_allocatorIiE10deallocateEPim:
LFB3077:
	stp	x29, x30, [sp, -48]!
LCFI319:
	mov	x29, sp
	str	x0, [sp, 40]
	str	x1, [sp, 32]
	str	x2, [sp, 24]
	ldr	x0, [sp, 24]
	lsl	x0, x0, 2
	mov	x1, x0
	ldr	x0, [sp, 32]
	bl	__ZdlPvm
	ldp	x29, x30, [sp], 48
LCFI320:
	ret
LFE3077:
	.align	2
	.globl __ZSt12__relocate_aIPiS0_SaIiEET0_T_S3_S2_RT1_
	.weak_definition __ZSt12__relocate_aIPiS0_SaIiEET0_T_S3_S2_RT1_
__ZSt12__relocate_aIPiS0_SaIiEET0_T_S3_S2_RT1_:
LFB3078:
	stp	x29, x30, [sp, -64]!
LCFI321:
	mov	x29, sp
	stp	x19, x20, [sp, 16]
LCFI322:
	str	x0, [sp, 56]
	str	x1, [sp, 48]
	str	x2, [sp, 40]
	str	x3, [sp, 32]
	ldr	x0, [sp, 56]
	bl	__ZSt12__niter_baseIPiET_S1_
	mov	x19, x0
	ldr	x0, [sp, 48]
	bl	__ZSt12__niter_baseIPiET_S1_
	mov	x20, x0
	ldr	x0, [sp, 40]
	bl	__ZSt12__niter_baseIPiET_S1_
	ldr	x3, [sp, 32]
	mov	x2, x0
	mov	x1, x20
	mov	x0, x19
	bl	__ZSt14__relocate_a_1IiiENSt9enable_ifIXsrSt24__is_bitwise_relocatableIT_vE5valueEPS2_E4typeES4_S4_S4_RSaIT0_E
	ldp	x19, x20, [sp, 16]
	ldp	x29, x30, [sp], 64
LCFI323:
	ret
LFE3078:
	.align	2
	.globl __ZNSt12_Destroy_auxILb1EE9__destroyIPiEEvT_S3_
	.weak_definition __ZNSt12_Destroy_auxILb1EE9__destroyIPiEEvT_S3_
__ZNSt12_Destroy_auxILb1EE9__destroyIPiEEvT_S3_:
LFB3079:
	sub	sp, sp, #16
LCFI324:
	str	x0, [sp, 8]
	str	x1, [sp]
	nop
	add	sp, sp, 16
LCFI325:
	ret
LFE3079:
	.align	2
	.globl __ZN9__gnu_cxx13new_allocatorIiEC2Ev
	.weak_definition __ZN9__gnu_cxx13new_allocatorIiEC2Ev
__ZN9__gnu_cxx13new_allocatorIiEC2Ev:
LFB3081:
	sub	sp, sp, #16
LCFI326:
	str	x0, [sp, 8]
	nop
	add	sp, sp, 16
LCFI327:
	ret
LFE3081:
	.align	2
	.globl __ZNSt15_Deque_iteratorIiRiPiEC1Ev
	.weak_definition __ZNSt15_Deque_iteratorIiRiPiEC1Ev
__ZNSt15_Deque_iteratorIiRiPiEC1Ev:
LFB3085:
	sub	sp, sp, #16
LCFI328:
	str	x0, [sp, 8]
	ldr	x0, [sp, 8]
	str	xzr, [x0]
	ldr	x0, [sp, 8]
	str	xzr, [x0, 8]
	ldr	x0, [sp, 8]
	str	xzr, [x0, 16]
	ldr	x0, [sp, 8]
	str	xzr, [x0, 24]
	nop
	add	sp, sp, 16
LCFI329:
	ret
LFE3085:
	.align	2
	.globl __ZNSt16allocator_traitsISaIPiEE8allocateERS1_m
	.weak_definition __ZNSt16allocator_traitsISaIPiEE8allocateERS1_m
__ZNSt16allocator_traitsISaIPiEE8allocateERS1_m:
LFB3086:
	stp	x29, x30, [sp, -32]!
LCFI330:
	mov	x29, sp
	str	x0, [sp, 24]
	str	x1, [sp, 16]
	mov	x2, 0
	ldr	x1, [sp, 16]
	ldr	x0, [sp, 24]
	bl	__ZN9__gnu_cxx13new_allocatorIPiE8allocateEmPKv
	ldp	x29, x30, [sp], 32
LCFI331:
	ret
LFE3086:
	.align	2
	.globl __ZNSt15_Deque_iteratorIiRiPiE14_S_buffer_sizeEv
	.weak_definition __ZNSt15_Deque_iteratorIiRiPiE14_S_buffer_sizeEv
__ZNSt15_Deque_iteratorIiRiPiE14_S_buffer_sizeEv:
LFB3087:
	stp	x29, x30, [sp, -16]!
LCFI332:
	mov	x29, sp
	mov	x0, 4
	bl	__ZSt16__deque_buf_sizem
	ldp	x29, x30, [sp], 16
LCFI333:
	ret
LFE3087:
	.align	2
	.globl __ZNKSt11_Deque_baseIiSaIiEE19_M_get_Tp_allocatorEv
	.weak_definition __ZNKSt11_Deque_baseIiSaIiEE19_M_get_Tp_allocatorEv
__ZNKSt11_Deque_baseIiSaIiEE19_M_get_Tp_allocatorEv:
LFB3088:
	sub	sp, sp, #16
LCFI334:
	str	x0, [sp, 8]
	ldr	x0, [sp, 8]
	add	sp, sp, 16
LCFI335:
	ret
LFE3088:
	.align	2
	.globl __ZNSaIPiEC1IiEERKSaIT_E
	.weak_definition __ZNSaIPiEC1IiEERKSaIT_E
__ZNSaIPiEC1IiEERKSaIT_E:
LFB3091:
	stp	x29, x30, [sp, -32]!
LCFI336:
	mov	x29, sp
	str	x0, [sp, 24]
	str	x1, [sp, 16]
	ldr	x0, [sp, 24]
	bl	__ZN9__gnu_cxx13new_allocatorIPiEC2Ev
	nop
	ldp	x29, x30, [sp], 32
LCFI337:
	ret
LFE3091:
	.align	2
	.globl __ZN9__gnu_cxx13new_allocatorIPiED2Ev
	.weak_definition __ZN9__gnu_cxx13new_allocatorIPiED2Ev
__ZN9__gnu_cxx13new_allocatorIPiED2Ev:
LFB3093:
	sub	sp, sp, #16
LCFI338:
	str	x0, [sp, 8]
	nop
	add	sp, sp, 16
LCFI339:
	ret
LFE3093:
	.align	2
	.globl __ZN9__gnu_cxx13new_allocatorIPiE10deallocateEPS1_m
	.weak_definition __ZN9__gnu_cxx13new_allocatorIPiE10deallocateEPS1_m
__ZN9__gnu_cxx13new_allocatorIPiE10deallocateEPS1_m:
LFB3095:
	stp	x29, x30, [sp, -48]!
LCFI340:
	mov	x29, sp
	str	x0, [sp, 40]
	str	x1, [sp, 32]
	str	x2, [sp, 24]
	ldr	x0, [sp, 24]
	lsl	x0, x0, 3
	mov	x1, x0
	ldr	x0, [sp, 32]
	bl	__ZdlPvm
	ldp	x29, x30, [sp], 48
LCFI341:
	ret
LFE3095:
	.align	2
	.globl __ZStmiRKSt15_Deque_iteratorIiRiPiES4_
	.weak_definition __ZStmiRKSt15_Deque_iteratorIiRiPiES4_
__ZStmiRKSt15_Deque_iteratorIiRiPiES4_:
LFB3096:
	stp	x29, x30, [sp, -32]!
LCFI342:
	mov	x29, sp
	str	x0, [sp, 24]
	str	x1, [sp, 16]
	bl	__ZNSt15_Deque_iteratorIiRiPiE14_S_buffer_sizeEv
	mov	x2, x0
	ldr	x0, [sp, 24]
	ldr	x1, [x0, 24]
	ldr	x0, [sp, 16]
	ldr	x0, [x0, 24]
	sub	x0, x1, x0
	asr	x0, x0, 3
	mov	x1, x0
	ldr	x0, [sp, 24]
	ldr	x0, [x0, 24]
	cmp	x0, 0
	cset	w0, ne
	and	w0, w0, 255
	and	x0, x0, 255
	sub	x0, x1, x0
	mul	x0, x2, x0
	ldr	x1, [sp, 24]
	ldr	x2, [x1]
	ldr	x1, [sp, 24]
	ldr	x1, [x1, 8]
	sub	x1, x2, x1
	asr	x1, x1, 2
	add	x0, x0, x1
	ldr	x1, [sp, 16]
	ldr	x2, [x1, 16]
	ldr	x1, [sp, 16]
	ldr	x1, [x1]
	sub	x1, x2, x1
	asr	x1, x1, 2
	add	x0, x0, x1
	ldp	x29, x30, [sp], 32
LCFI343:
	ret
LFE3096:
	.align	2
	.globl __ZNSt5dequeIiSaIiEE11_S_max_sizeERKS0_
	.weak_definition __ZNSt5dequeIiSaIiEE11_S_max_sizeERKS0_
__ZNSt5dequeIiSaIiEE11_S_max_sizeERKS0_:
LFB3097:
	stp	x29, x30, [sp, -48]!
LCFI344:
	mov	x29, sp
	str	x0, [sp, 24]
	mov	x0, 9223372036854775807
	str	x0, [sp, 40]
	ldr	x0, [sp, 24]
	bl	__ZNSt16allocator_traitsISaIiEE8max_sizeERKS0_
	str	x0, [sp, 32]
	add	x1, sp, 32
	add	x0, sp, 40
	bl	__ZSt3minImERKT_S2_S2_
	ldr	x0, [x0]
	ldp	x29, x30, [sp], 48
LCFI345:
	ret
LFE3097:
	.align	2
	.globl __ZNSt5dequeIiSaIiEE17_M_reallocate_mapEmb
	.weak_definition __ZNSt5dequeIiSaIiEE17_M_reallocate_mapEmb
__ZNSt5dequeIiSaIiEE17_M_reallocate_mapEmb:
LFB3098:
	stp	x29, x30, [sp, -112]!
LCFI346:
	mov	x29, sp
	str	x19, [sp, 16]
LCFI347:
	str	x0, [sp, 56]
	str	x1, [sp, 48]
	strb	w2, [sp, 47]
	ldr	x0, [sp, 56]
	ldr	x1, [x0, 72]
	ldr	x0, [sp, 56]
	ldr	x0, [x0, 40]
	sub	x0, x1, x0
	asr	x0, x0, 3
	add	x0, x0, 1
	str	x0, [sp, 96]
	ldr	x0, [sp, 48]
	ldr	x1, [sp, 96]
	add	x0, x1, x0
	str	x0, [sp, 88]
	ldr	x0, [sp, 56]
	ldr	x1, [x0, 8]
	ldr	x0, [sp, 88]
	lsl	x0, x0, 1
	cmp	x1, x0
	bls	L381
	ldr	x0, [sp, 56]
	ldr	x1, [x0]
	ldr	x0, [sp, 56]
	ldr	x2, [x0, 8]
	ldr	x0, [sp, 88]
	sub	x0, x2, x0
	lsr	x0, x0, 1
	lsl	x2, x0, 3
	ldrb	w0, [sp, 47]
	cmp	w0, 0
	beq	L382
	ldr	x0, [sp, 48]
	lsl	x0, x0, 3
	b	L383
L382:
	mov	x0, 0
L383:
	add	x0, x0, x2
	add	x0, x1, x0
	str	x0, [sp, 104]
	ldr	x0, [sp, 56]
	ldr	x0, [x0, 40]
	ldr	x1, [sp, 104]
	cmp	x1, x0
	bcs	L384
	ldr	x0, [sp, 56]
	ldr	x3, [x0, 40]
	ldr	x0, [sp, 56]
	ldr	x0, [x0, 72]
	add	x0, x0, 8
	ldr	x2, [sp, 104]
	mov	x1, x0
	mov	x0, x3
	bl	__ZSt4copyIPPiS1_ET0_T_S3_S2_
	b	L385
L384:
	ldr	x0, [sp, 56]
	ldr	x3, [x0, 40]
	ldr	x0, [sp, 56]
	ldr	x0, [x0, 72]
	add	x4, x0, 8
	ldr	x0, [sp, 96]
	lsl	x0, x0, 3
	ldr	x1, [sp, 104]
	add	x0, x1, x0
	mov	x2, x0
	mov	x1, x4
	mov	x0, x3
	bl	__ZSt13copy_backwardIPPiS1_ET0_T_S3_S2_
	b	L385
L381:
	ldr	x0, [sp, 56]
	ldr	x19, [x0, 8]
	ldr	x0, [sp, 56]
	add	x0, x0, 8
	add	x1, sp, 48
	bl	__ZSt3maxImERKT_S2_S2_
	ldr	x0, [x0]
	add	x0, x19, x0
	add	x0, x0, 2
	str	x0, [sp, 80]
	ldr	x0, [sp, 56]
	ldr	x1, [sp, 80]
	bl	__ZNSt11_Deque_baseIiSaIiEE15_M_allocate_mapEm
	str	x0, [sp, 72]
	ldr	x1, [sp, 80]
	ldr	x0, [sp, 88]
	sub	x0, x1, x0
	lsr	x0, x0, 1
	lsl	x1, x0, 3
	ldrb	w0, [sp, 47]
	cmp	w0, 0
	beq	L386
	ldr	x0, [sp, 48]
	lsl	x0, x0, 3
	b	L387
L386:
	mov	x0, 0
L387:
	add	x0, x0, x1
	ldr	x1, [sp, 72]
	add	x0, x1, x0
	str	x0, [sp, 104]
	ldr	x0, [sp, 56]
	ldr	x3, [x0, 40]
	ldr	x0, [sp, 56]
	ldr	x0, [x0, 72]
	add	x0, x0, 8
	ldr	x2, [sp, 104]
	mov	x1, x0
	mov	x0, x3
	bl	__ZSt4copyIPPiS1_ET0_T_S3_S2_
	ldr	x3, [sp, 56]
	ldr	x0, [sp, 56]
	ldr	x1, [x0]
	ldr	x0, [sp, 56]
	ldr	x0, [x0, 8]
	mov	x2, x0
	mov	x0, x3
	bl	__ZNSt11_Deque_baseIiSaIiEE17_M_deallocate_mapEPPim
	ldr	x0, [sp, 56]
	ldr	x1, [sp, 72]
	str	x1, [x0]
	ldr	x0, [sp, 56]
	ldr	x1, [sp, 80]
	str	x1, [x0, 8]
L385:
	ldr	x0, [sp, 56]
	add	x0, x0, 16
	ldr	x1, [sp, 104]
	bl	__ZNSt15_Deque_iteratorIiRiPiE11_M_set_nodeEPS1_
	ldr	x0, [sp, 56]
	add	x2, x0, 48
	ldr	x0, [sp, 96]
	lsl	x0, x0, 3
	sub	x0, x0, #8
	ldr	x1, [sp, 104]
	add	x0, x1, x0
	mov	x1, x0
	mov	x0, x2
	bl	__ZNSt15_Deque_iteratorIiRiPiE11_M_set_nodeEPS1_
	nop
	ldr	x19, [sp, 16]
	ldp	x29, x30, [sp], 112
LCFI348:
	ret
LFE3098:
	.align	2
	.globl __ZN9__gnu_cxx13new_allocatorISt6vectorIiSaIiEEEC2ERKS4_
	.weak_definition __ZN9__gnu_cxx13new_allocatorISt6vectorIiSaIiEEEC2ERKS4_
__ZN9__gnu_cxx13new_allocatorISt6vectorIiSaIiEEEC2ERKS4_:
LFB3100:
	sub	sp, sp, #16
LCFI349:
	str	x0, [sp, 8]
	str	x1, [sp]
	nop
	add	sp, sp, 16
LCFI350:
	ret
LFE3100:
	.align	2
	.globl __ZN9__gnu_cxxneIPKSt6vectorIiSaIiEES1_IS3_SaIS3_EEEEbRKNS_17__normal_iteratorIT_T0_EESD_
	.weak_definition __ZN9__gnu_cxxneIPKSt6vectorIiSaIiEES1_IS3_SaIS3_EEEEbRKNS_17__normal_iteratorIT_T0_EESD_
__ZN9__gnu_cxxneIPKSt6vectorIiSaIiEES1_IS3_SaIS3_EEEEbRKNS_17__normal_iteratorIT_T0_EESD_:
LFB3102:
	stp	x29, x30, [sp, -48]!
LCFI351:
	mov	x29, sp
	str	x19, [sp, 16]
LCFI352:
	str	x0, [sp, 40]
	str	x1, [sp, 32]
	ldr	x0, [sp, 40]
	bl	__ZNK9__gnu_cxx17__normal_iteratorIPKSt6vectorIiSaIiEES1_IS3_SaIS3_EEE4baseEv
	ldr	x19, [x0]
	ldr	x0, [sp, 32]
	bl	__ZNK9__gnu_cxx17__normal_iteratorIPKSt6vectorIiSaIiEES1_IS3_SaIS3_EEE4baseEv
	ldr	x0, [x0]
	cmp	x19, x0
	cset	w0, ne
	and	w0, w0, 255
	ldr	x19, [sp, 16]
	ldp	x29, x30, [sp], 48
LCFI353:
	ret
LFE3102:
	.align	2
	.globl __ZN9__gnu_cxx17__normal_iteratorIPKSt6vectorIiSaIiEES1_IS3_SaIS3_EEEppEv
	.weak_definition __ZN9__gnu_cxx17__normal_iteratorIPKSt6vectorIiSaIiEES1_IS3_SaIS3_EEEppEv
__ZN9__gnu_cxx17__normal_iteratorIPKSt6vectorIiSaIiEES1_IS3_SaIS3_EEEppEv:
LFB3103:
	sub	sp, sp, #16
LCFI354:
	str	x0, [sp, 8]
	ldr	x0, [sp, 8]
	ldr	x0, [x0]
	add	x1, x0, 24
	ldr	x0, [sp, 8]
	str	x1, [x0]
	ldr	x0, [sp, 8]
	add	sp, sp, 16
LCFI355:
	ret
LFE3103:
	.align	2
	.globl __ZNK9__gnu_cxx17__normal_iteratorIPKSt6vectorIiSaIiEES1_IS3_SaIS3_EEEdeEv
	.weak_definition __ZNK9__gnu_cxx17__normal_iteratorIPKSt6vectorIiSaIiEES1_IS3_SaIS3_EEEdeEv
__ZNK9__gnu_cxx17__normal_iteratorIPKSt6vectorIiSaIiEES1_IS3_SaIS3_EEEdeEv:
LFB3104:
	sub	sp, sp, #16
LCFI356:
	str	x0, [sp, 8]
	ldr	x0, [sp, 8]
	ldr	x0, [x0]
	add	sp, sp, 16
LCFI357:
	ret
LFE3104:
	.align	2
	.globl __ZSt10_ConstructISt6vectorIiSaIiEEJRKS2_EEvPT_DpOT0_
	.weak_definition __ZSt10_ConstructISt6vectorIiSaIiEEJRKS2_EEvPT_DpOT0_
__ZSt10_ConstructISt6vectorIiSaIiEEJRKS2_EEvPT_DpOT0_:
LFB3105:
	stp	x29, x30, [sp, -64]!
LCFI358:
	mov	x29, sp
	stp	x19, x20, [sp, 16]
	str	x21, [sp, 32]
LCFI359:
	str	x0, [sp, 56]
	str	x1, [sp, 48]
	ldr	x0, [sp, 48]
	bl	__ZSt7forwardIRKSt6vectorIiSaIiEEEOT_RNSt16remove_referenceIS5_E4typeE
	mov	x21, x0
	ldr	x19, [sp, 56]
	mov	x1, x19
	mov	x0, 24
	bl	__ZnwmPv
	mov	x20, x0
	mov	x1, x21
	mov	x0, x20
LEHB47:
	bl	__ZNSt6vectorIiSaIiEEC1ERKS1_
LEHE47:
	b	L398
L397:
	mov	x21, x0
	mov	x1, x19
	mov	x0, x20
	bl	__ZdlPvS_
	mov	x0, x21
LEHB48:
	bl	__Unwind_Resume
LEHE48:
L398:
	ldp	x19, x20, [sp, 16]
	ldr	x21, [sp, 32]
	ldp	x29, x30, [sp], 64
LCFI360:
	ret
LFE3105:
	.section __DATA,__gcc_except_tab
_GCC_except_table20:
LLSDA3105:
	.byte	0xff
	.byte	0xff
	.byte	0x1
	.uleb128 LLSDACSE3105-LLSDACSB3105
LLSDACSB3105:
	.uleb128 LEHB47-LFB3105
	.uleb128 LEHE47-LEHB47
	.uleb128 L397-LFB3105
	.uleb128 0
	.uleb128 LEHB48-LFB3105
	.uleb128 LEHE48-LEHB48
	.uleb128 0
	.uleb128 0
LLSDACSE3105:
	.text
	.align	2
	.globl __ZNSt6vectorIiSaIiEED1Ev
	.weak_definition __ZNSt6vectorIiSaIiEED1Ev
__ZNSt6vectorIiSaIiEED1Ev:
LFB3132:
	stp	x29, x30, [sp, -48]!
LCFI361:
	mov	x29, sp
	stp	x19, x20, [sp, 16]
LCFI362:
	str	x0, [sp, 40]
	ldr	x0, [sp, 40]
	ldr	x19, [x0]
	ldr	x0, [sp, 40]
	ldr	x20, [x0, 8]
	ldr	x0, [sp, 40]
	bl	__ZNSt12_Vector_baseIiSaIiEE19_M_get_Tp_allocatorEv
	mov	x2, x0
	mov	x1, x20
	mov	x0, x19
	bl	__ZSt8_DestroyIPiiEvT_S1_RSaIT0_E
	ldr	x0, [sp, 40]
	bl	__ZNSt12_Vector_baseIiSaIiEED2Ev
	nop
	ldp	x19, x20, [sp, 16]
	ldp	x29, x30, [sp], 48
LCFI363:
	ret
LFE3132:
	.section __DATA,__gcc_except_tab
_GCC_except_table21:
LLSDA3132:
	.byte	0xff
	.byte	0xff
	.byte	0x1
	.uleb128 LLSDACSE3132-LLSDACSB3132
LLSDACSB3132:
LLSDACSE3132:
	.text
	.align	2
	.globl __ZNK9__gnu_cxx13new_allocatorISt6vectorIiSaIiEEE8max_sizeEv
	.weak_definition __ZNK9__gnu_cxx13new_allocatorISt6vectorIiSaIiEEE8max_sizeEv
__ZNK9__gnu_cxx13new_allocatorISt6vectorIiSaIiEEE8max_sizeEv:
LFB3133:
	stp	x29, x30, [sp, -32]!
LCFI364:
	mov	x29, sp
	str	x0, [sp, 24]
	ldr	x0, [sp, 24]
	bl	__ZNK9__gnu_cxx13new_allocatorISt6vectorIiSaIiEEE11_M_max_sizeEv
	ldp	x29, x30, [sp], 32
LCFI365:
	ret
LFE3133:
	.align	2
	.globl __ZNSt12_Vector_baseIiSaIiEE12_Vector_implD1Ev
	.weak_definition __ZNSt12_Vector_baseIiSaIiEE12_Vector_implD1Ev
__ZNSt12_Vector_baseIiSaIiEE12_Vector_implD1Ev:
LFB3139:
	stp	x29, x30, [sp, -32]!
LCFI366:
	mov	x29, sp
	str	x0, [sp, 24]
	ldr	x0, [sp, 24]
	bl	__ZNSaIiED2Ev
	nop
	ldp	x29, x30, [sp], 32
LCFI367:
	ret
LFE3139:
	.align	2
	.globl __ZNSt12_Vector_baseIiSaIiEEC2Ev
	.weak_definition __ZNSt12_Vector_baseIiSaIiEEC2Ev
__ZNSt12_Vector_baseIiSaIiEEC2Ev:
LFB3140:
	stp	x29, x30, [sp, -32]!
LCFI368:
	mov	x29, sp
	str	x0, [sp, 24]
	ldr	x0, [sp, 24]
	bl	__ZNSt12_Vector_baseIiSaIiEE12_Vector_implC1Ev
	nop
	ldp	x29, x30, [sp], 32
LCFI369:
	ret
LFE3140:
	.align	2
	.globl __ZNSt6vectorIiSaIiEEC1Ev
	.weak_definition __ZNSt6vectorIiSaIiEEC1Ev
__ZNSt6vectorIiSaIiEEC1Ev:
LFB3143:
	stp	x29, x30, [sp, -32]!
LCFI370:
	mov	x29, sp
	str	x0, [sp, 24]
	ldr	x0, [sp, 24]
	bl	__ZNSt12_Vector_baseIiSaIiEEC2Ev
	nop
	ldp	x29, x30, [sp], 32
LCFI371:
	ret
LFE3143:
	.align	2
	.globl __ZSt10_ConstructISt6vectorIiSaIiEEJEEvPT_DpOT0_
	.weak_definition __ZSt10_ConstructISt6vectorIiSaIiEEJEEvPT_DpOT0_
__ZSt10_ConstructISt6vectorIiSaIiEEJEEvPT_DpOT0_:
LFB3134:
	stp	x29, x30, [sp, -32]!
LCFI372:
	mov	x29, sp
	str	x0, [sp, 24]
	ldr	x0, [sp, 24]
	mov	x1, x0
	mov	x0, 24
	bl	__ZnwmPv
	stp	xzr, xzr, [x0]
	str	xzr, [x0, 16]
	bl	__ZNSt6vectorIiSaIiEEC1Ev
	nop
	ldp	x29, x30, [sp], 32
LCFI373:
	ret
LFE3134:
	.align	2
	.globl __ZSt12__niter_baseIPSt6vectorIiSaIiEEET_S4_
	.weak_definition __ZSt12__niter_baseIPSt6vectorIiSaIiEEET_S4_
__ZSt12__niter_baseIPSt6vectorIiSaIiEEET_S4_:
LFB3144:
	sub	sp, sp, #16
LCFI374:
	str	x0, [sp, 8]
	ldr	x0, [sp, 8]
	add	sp, sp, 16
LCFI375:
	ret
LFE3144:
	.align	2
	.globl __ZSt14__relocate_a_1IPSt6vectorIiSaIiEES3_SaIS2_EET0_T_S6_S5_RT1_
	.weak_definition __ZSt14__relocate_a_1IPSt6vectorIiSaIiEES3_SaIS2_EET0_T_S6_S5_RT1_
__ZSt14__relocate_a_1IPSt6vectorIiSaIiEES3_SaIS2_EET0_T_S6_S5_RT1_:
LFB3145:
	stp	x29, x30, [sp, -80]!
LCFI376:
	mov	x29, sp
	str	x19, [sp, 16]
LCFI377:
	str	x0, [sp, 56]
	str	x1, [sp, 48]
	str	x2, [sp, 40]
	str	x3, [sp, 32]
	ldr	x0, [sp, 40]
	str	x0, [sp, 72]
	b	L409
L410:
	ldr	x0, [sp, 72]
	bl	__ZSt11__addressofISt6vectorIiSaIiEEEPT_RS3_
	mov	x19, x0
	ldr	x0, [sp, 56]
	bl	__ZSt11__addressofISt6vectorIiSaIiEEEPT_RS3_
	ldr	x2, [sp, 32]
	mov	x1, x0
	mov	x0, x19
	bl	__ZSt19__relocate_object_aISt6vectorIiSaIiEES2_SaIS2_EEvPT_PT0_RT1_
	ldr	x0, [sp, 56]
	add	x0, x0, 24
	str	x0, [sp, 56]
	ldr	x0, [sp, 72]
	add	x0, x0, 24
	str	x0, [sp, 72]
L409:
	ldr	x1, [sp, 56]
	ldr	x0, [sp, 48]
	cmp	x1, x0
	bne	L410
	ldr	x0, [sp, 72]
	ldr	x19, [sp, 16]
	ldp	x29, x30, [sp], 80
LCFI378:
	ret
LFE3145:
	.align	2
	.globl __ZNK9__gnu_cxx13new_allocatorIiE8max_sizeEv
	.weak_definition __ZNK9__gnu_cxx13new_allocatorIiE8max_sizeEv
__ZNK9__gnu_cxx13new_allocatorIiE8max_sizeEv:
LFB3146:
	stp	x29, x30, [sp, -32]!
LCFI379:
	mov	x29, sp
	str	x0, [sp, 24]
	ldr	x0, [sp, 24]
	bl	__ZNK9__gnu_cxx13new_allocatorIiE11_M_max_sizeEv
	ldp	x29, x30, [sp], 32
LCFI380:
	ret
LFE3146:
	.align	2
	.globl __ZSt10_ConstructIiJEEvPT_DpOT0_
	.weak_definition __ZSt10_ConstructIiJEEvPT_DpOT0_
__ZSt10_ConstructIiJEEvPT_DpOT0_:
LFB3147:
	stp	x29, x30, [sp, -32]!
LCFI381:
	mov	x29, sp
	str	x0, [sp, 24]
	ldr	x0, [sp, 24]
	mov	x1, x0
	mov	x0, 4
	bl	__ZnwmPv
	str	wzr, [x0]
	nop
	ldp	x29, x30, [sp], 32
LCFI382:
	ret
LFE3147:
	.align	2
	.globl __ZSt6fill_nIPimiET_S1_T0_RKT1_
	.weak_definition __ZSt6fill_nIPimiET_S1_T0_RKT1_
__ZSt6fill_nIPimiET_S1_T0_RKT1_:
LFB3148:
	stp	x29, x30, [sp, -80]!
LCFI383:
	mov	x29, sp
	stp	x19, x20, [sp, 16]
	str	x21, [sp, 32]
LCFI384:
	str	x0, [sp, 72]
	str	x1, [sp, 64]
	str	x2, [sp, 56]
	ldr	x19, [sp, 72]
	ldr	x0, [sp, 64]
	bl	__ZSt17__size_to_integerm
	mov	x20, x0
	add	x0, sp, 72
	bl	__ZSt19__iterator_categoryIPiENSt15iterator_traitsIT_E17iterator_categoryERKS2_
	mov	w3, w21
	ldr	x2, [sp, 56]
	mov	x1, x20
	mov	x0, x19
	bl	__ZSt10__fill_n_aIPimiET_S1_T0_RKT1_St26random_access_iterator_tag
	ldp	x19, x20, [sp, 16]
	ldr	x21, [sp, 32]
	ldp	x29, x30, [sp], 80
LCFI385:
	ret
LFE3148:
	.align	2
	.globl __ZSt12__niter_baseIPiET_S1_
	.weak_definition __ZSt12__niter_baseIPiET_S1_
__ZSt12__niter_baseIPiET_S1_:
LFB3149:
	sub	sp, sp, #16
LCFI386:
	str	x0, [sp, 8]
	ldr	x0, [sp, 8]
	add	sp, sp, 16
LCFI387:
	ret
LFE3149:
	.align	2
	.globl __ZSt14__relocate_a_1IiiENSt9enable_ifIXsrSt24__is_bitwise_relocatableIT_vE5valueEPS2_E4typeES4_S4_S4_RSaIT0_E
	.weak_definition __ZSt14__relocate_a_1IiiENSt9enable_ifIXsrSt24__is_bitwise_relocatableIT_vE5valueEPS2_E4typeES4_S4_S4_RSaIT0_E
__ZSt14__relocate_a_1IiiENSt9enable_ifIXsrSt24__is_bitwise_relocatableIT_vE5valueEPS2_E4typeES4_S4_S4_RSaIT0_E:
LFB3150:
	stp	x29, x30, [sp, -64]!
LCFI388:
	mov	x29, sp
	str	x0, [sp, 40]
	str	x1, [sp, 32]
	str	x2, [sp, 24]
	str	x3, [sp, 16]
	ldr	x1, [sp, 32]
	ldr	x0, [sp, 40]
	sub	x0, x1, x0
	asr	x0, x0, 2
	str	x0, [sp, 56]
	ldr	x0, [sp, 56]
	cmp	x0, 0
	ble	L420
	ldr	x0, [sp, 56]
	lsl	x0, x0, 2
	mov	x2, x0
	ldr	x1, [sp, 40]
	ldr	x0, [sp, 24]
	bl	_memmove
L420:
	ldr	x0, [sp, 56]
	lsl	x0, x0, 2
	ldr	x1, [sp, 24]
	add	x0, x1, x0
	ldp	x29, x30, [sp], 64
LCFI389:
	ret
LFE3150:
	.align	2
	.globl __ZNK9__gnu_cxx13new_allocatorIPiE11_M_max_sizeEv
	.weak_definition __ZNK9__gnu_cxx13new_allocatorIPiE11_M_max_sizeEv
__ZNK9__gnu_cxx13new_allocatorIPiE11_M_max_sizeEv:
LFB3152:
	sub	sp, sp, #16
LCFI390:
	str	x0, [sp, 8]
	mov	x0, 1152921504606846975
	add	sp, sp, 16
LCFI391:
	ret
LFE3152:
	.align	2
	.globl __ZN9__gnu_cxx13new_allocatorIPiE8allocateEmPKv
	.weak_definition __ZN9__gnu_cxx13new_allocatorIPiE8allocateEmPKv
__ZN9__gnu_cxx13new_allocatorIPiE8allocateEmPKv:
LFB3151:
	stp	x29, x30, [sp, -48]!
LCFI392:
	mov	x29, sp
	str	x0, [sp, 40]
	str	x1, [sp, 32]
	str	x2, [sp, 24]
	ldr	x0, [sp, 40]
	bl	__ZNK9__gnu_cxx13new_allocatorIPiE11_M_max_sizeEv
	mov	x1, x0
	ldr	x0, [sp, 32]
	cmp	x0, x1
	cset	w0, hi
	and	w0, w0, 255
	and	x0, x0, 255
	cmp	x0, 0
	cset	w0, ne
	and	w0, w0, 255
	cmp	w0, 0
	beq	L425
	ldr	x1, [sp, 32]
	mov	x0, 2305843009213693951
	cmp	x1, x0
	bls	L426
	bl	__ZSt28__throw_bad_array_new_lengthv
L426:
	bl	__ZSt17__throw_bad_allocv
L425:
	ldr	x0, [sp, 32]
	lsl	x0, x0, 3
	bl	__Znwm
	nop
	ldp	x29, x30, [sp], 48
LCFI393:
	ret
LFE3151:
	.align	2
	.globl __ZN9__gnu_cxx13new_allocatorIPiEC2Ev
	.weak_definition __ZN9__gnu_cxx13new_allocatorIPiEC2Ev
__ZN9__gnu_cxx13new_allocatorIPiEC2Ev:
LFB3154:
	sub	sp, sp, #16
LCFI394:
	str	x0, [sp, 8]
	nop
	add	sp, sp, 16
LCFI395:
	ret
LFE3154:
	.align	2
	.globl __ZSt4copyIPPiS1_ET0_T_S3_S2_
	.weak_definition __ZSt4copyIPPiS1_ET0_T_S3_S2_
__ZSt4copyIPPiS1_ET0_T_S3_S2_:
LFB3156:
	stp	x29, x30, [sp, -64]!
LCFI396:
	mov	x29, sp
	str	x19, [sp, 16]
LCFI397:
	str	x0, [sp, 56]
	str	x1, [sp, 48]
	str	x2, [sp, 40]
	ldr	x0, [sp, 56]
	bl	__ZSt12__miter_baseIPPiET_S2_
	mov	x19, x0
	ldr	x0, [sp, 48]
	bl	__ZSt12__miter_baseIPPiET_S2_
	ldr	x2, [sp, 40]
	mov	x1, x0
	mov	x0, x19
	bl	__ZSt13__copy_move_aILb0EPPiS1_ET1_T0_S3_S2_
	ldr	x19, [sp, 16]
	ldp	x29, x30, [sp], 64
LCFI398:
	ret
LFE3156:
	.align	2
	.globl __ZSt13copy_backwardIPPiS1_ET0_T_S3_S2_
	.weak_definition __ZSt13copy_backwardIPPiS1_ET0_T_S3_S2_
__ZSt13copy_backwardIPPiS1_ET0_T_S3_S2_:
LFB3157:
	stp	x29, x30, [sp, -64]!
LCFI399:
	mov	x29, sp
	str	x19, [sp, 16]
LCFI400:
	str	x0, [sp, 56]
	str	x1, [sp, 48]
	str	x2, [sp, 40]
	ldr	x0, [sp, 56]
	bl	__ZSt12__miter_baseIPPiET_S2_
	mov	x19, x0
	ldr	x0, [sp, 48]
	bl	__ZSt12__miter_baseIPPiET_S2_
	ldr	x2, [sp, 40]
	mov	x1, x0
	mov	x0, x19
	bl	__ZSt22__copy_move_backward_aILb0EPPiS1_ET1_T0_S3_S2_
	ldr	x19, [sp, 16]
	ldp	x29, x30, [sp], 64
LCFI401:
	ret
LFE3157:
	.align	2
	.globl __ZNK9__gnu_cxx17__normal_iteratorIPKSt6vectorIiSaIiEES1_IS3_SaIS3_EEE4baseEv
	.weak_definition __ZNK9__gnu_cxx17__normal_iteratorIPKSt6vectorIiSaIiEES1_IS3_SaIS3_EEE4baseEv
__ZNK9__gnu_cxx17__normal_iteratorIPKSt6vectorIiSaIiEES1_IS3_SaIS3_EEE4baseEv:
LFB3158:
	sub	sp, sp, #16
LCFI402:
	str	x0, [sp, 8]
	ldr	x0, [sp, 8]
	add	sp, sp, 16
LCFI403:
	ret
LFE3158:
	.align	2
	.globl __ZSt7forwardIRKSt6vectorIiSaIiEEEOT_RNSt16remove_referenceIS5_E4typeE
	.weak_definition __ZSt7forwardIRKSt6vectorIiSaIiEEEOT_RNSt16remove_referenceIS5_E4typeE
__ZSt7forwardIRKSt6vectorIiSaIiEEEOT_RNSt16remove_referenceIS5_E4typeE:
LFB3159:
	sub	sp, sp, #16
LCFI404:
	str	x0, [sp, 8]
	ldr	x0, [sp, 8]
	add	sp, sp, 16
LCFI405:
	ret
LFE3159:
	.align	2
	.globl __ZNSt6vectorIiSaIiEEC1ERKS1_
	.weak_definition __ZNSt6vectorIiSaIiEEC1ERKS1_
__ZNSt6vectorIiSaIiEEC1ERKS1_:
LFB3162:
	stp	x29, x30, [sp, -80]!
LCFI406:
	mov	x29, sp
	stp	x19, x20, [sp, 16]
	str	x21, [sp, 32]
LCFI407:
	str	x0, [sp, 56]
	str	x1, [sp, 48]
	ldr	x19, [sp, 56]
	ldr	x0, [sp, 48]
	bl	__ZNKSt6vectorIiSaIiEE4sizeEv
	mov	x20, x0
	ldr	x0, [sp, 48]
	bl	__ZNKSt12_Vector_baseIiSaIiEE19_M_get_Tp_allocatorEv
	mov	x1, x0
	add	x0, sp, 72
	mov	x8, x0
	mov	x0, x1
LEHB49:
	bl	__ZN9__gnu_cxx14__alloc_traitsISaIiEiE17_S_select_on_copyERKS1_
LEHE49:
	add	x0, sp, 72
	mov	x2, x0
	mov	x1, x20
	mov	x0, x19
LEHB50:
	bl	__ZNSt12_Vector_baseIiSaIiEEC2EmRKS0_
LEHE50:
	add	x0, sp, 72
	bl	__ZNSaIiED1Ev
	ldr	x0, [sp, 48]
	bl	__ZNKSt6vectorIiSaIiEE5beginEv
	mov	x20, x0
	ldr	x0, [sp, 48]
	bl	__ZNKSt6vectorIiSaIiEE3endEv
	mov	x21, x0
	ldr	x0, [sp, 56]
	ldr	x19, [x0]
	ldr	x0, [sp, 56]
	bl	__ZNSt12_Vector_baseIiSaIiEE19_M_get_Tp_allocatorEv
	mov	x3, x0
	mov	x2, x19
	mov	x1, x21
	mov	x0, x20
LEHB51:
	bl	__ZSt22__uninitialized_copy_aIN9__gnu_cxx17__normal_iteratorIPKiSt6vectorIiSaIiEEEEPiiET0_T_SA_S9_RSaIT1_E
LEHE51:
	mov	x1, x0
	ldr	x0, [sp, 56]
	str	x1, [x0, 8]
	b	L442
L440:
	mov	x19, x0
	add	x0, sp, 72
	bl	__ZNSaIiED1Ev
	mov	x0, x19
LEHB52:
	bl	__Unwind_Resume
L441:
	mov	x19, x0
	ldr	x0, [sp, 56]
	bl	__ZNSt12_Vector_baseIiSaIiEED2Ev
	mov	x0, x19
	bl	__Unwind_Resume
LEHE52:
L442:
	ldp	x19, x20, [sp, 16]
	ldr	x21, [sp, 32]
	ldp	x29, x30, [sp], 80
LCFI408:
	ret
LFE3162:
	.section __DATA,__gcc_except_tab
_GCC_except_table22:
LLSDA3162:
	.byte	0xff
	.byte	0xff
	.byte	0x1
	.uleb128 LLSDACSE3162-LLSDACSB3162
LLSDACSB3162:
	.uleb128 LEHB49-LFB3162
	.uleb128 LEHE49-LEHB49
	.uleb128 0
	.uleb128 0
	.uleb128 LEHB50-LFB3162
	.uleb128 LEHE50-LEHB50
	.uleb128 L440-LFB3162
	.uleb128 0
	.uleb128 LEHB51-LFB3162
	.uleb128 LEHE51-LEHB51
	.uleb128 L441-LFB3162
	.uleb128 0
	.uleb128 LEHB52-LFB3162
	.uleb128 LEHE52-LEHB52
	.uleb128 0
	.uleb128 0
LLSDACSE3162:
	.text
	.align	2
	.globl __ZNSt12_Vector_baseIiSaIiEED2Ev
	.weak_definition __ZNSt12_Vector_baseIiSaIiEED2Ev
__ZNSt12_Vector_baseIiSaIiEED2Ev:
LFB3176:
	stp	x29, x30, [sp, -32]!
LCFI409:
	mov	x29, sp
	str	x0, [sp, 24]
	ldr	x0, [sp, 24]
	ldr	x3, [x0]
	ldr	x0, [sp, 24]
	ldr	x1, [x0, 16]
	ldr	x0, [sp, 24]
	ldr	x0, [x0]
	sub	x0, x1, x0
	asr	x0, x0, 2
	mov	x2, x0
	mov	x1, x3
	ldr	x0, [sp, 24]
	bl	__ZNSt12_Vector_baseIiSaIiEE13_M_deallocateEPim
	ldr	x0, [sp, 24]
	bl	__ZNSt12_Vector_baseIiSaIiEE12_Vector_implD1Ev
	nop
	ldp	x29, x30, [sp], 32
LCFI410:
	ret
LFE3176:
	.section __DATA,__gcc_except_tab
_GCC_except_table23:
LLSDA3176:
	.byte	0xff
	.byte	0xff
	.byte	0x1
	.uleb128 LLSDACSE3176-LLSDACSB3176
LLSDACSB3176:
LLSDACSE3176:
	.text
	.align	2
	.globl __ZNSt12_Vector_baseIiSaIiEE12_Vector_implC1Ev
	.weak_definition __ZNSt12_Vector_baseIiSaIiEE12_Vector_implC1Ev
__ZNSt12_Vector_baseIiSaIiEE12_Vector_implC1Ev:
LFB3180:
	stp	x29, x30, [sp, -32]!
LCFI411:
	mov	x29, sp
	str	x0, [sp, 24]
	ldr	x0, [sp, 24]
	bl	__ZNSaIiEC2Ev
	ldr	x0, [sp, 24]
	bl	__ZNSt12_Vector_baseIiSaIiEE17_Vector_impl_dataC2Ev
	nop
	ldp	x29, x30, [sp], 32
LCFI412:
	ret
LFE3180:
	.align	2
	.globl __ZSt19__relocate_object_aISt6vectorIiSaIiEES2_SaIS2_EEvPT_PT0_RT1_
	.weak_definition __ZSt19__relocate_object_aISt6vectorIiSaIiEES2_SaIS2_EEvPT_PT0_RT1_
__ZSt19__relocate_object_aISt6vectorIiSaIiEES2_SaIS2_EEvPT_PT0_RT1_:
LFB3181:
	stp	x29, x30, [sp, -48]!
LCFI413:
	mov	x29, sp
	str	x0, [sp, 40]
	str	x1, [sp, 32]
	str	x2, [sp, 24]
	ldr	x0, [sp, 32]
	bl	__ZSt4moveIRSt6vectorIiSaIiEEEONSt16remove_referenceIT_E4typeEOS5_
	mov	x2, x0
	ldr	x1, [sp, 40]
	ldr	x0, [sp, 24]
	bl	__ZNSt16allocator_traitsISaISt6vectorIiSaIiEEEE9constructIS2_JS2_EEEvRS3_PT_DpOT0_
	ldr	x0, [sp, 32]
	bl	__ZSt11__addressofISt6vectorIiSaIiEEEPT_RS3_
	mov	x1, x0
	ldr	x0, [sp, 24]
	bl	__ZNSt16allocator_traitsISaISt6vectorIiSaIiEEEE7destroyIS2_EEvRS3_PT_
	nop
	ldp	x29, x30, [sp], 48
LCFI414:
	ret
LFE3181:
	.align	2
	.globl __ZSt19__iterator_categoryIPiENSt15iterator_traitsIT_E17iterator_categoryERKS2_
	.weak_definition __ZSt19__iterator_categoryIPiENSt15iterator_traitsIT_E17iterator_categoryERKS2_
__ZSt19__iterator_categoryIPiENSt15iterator_traitsIT_E17iterator_categoryERKS2_:
LFB3182:
	sub	sp, sp, #16
LCFI415:
	str	x0, [sp, 8]
	mov	w0, w1
	add	sp, sp, 16
LCFI416:
	ret
LFE3182:
	.align	2
	.globl __ZSt10__fill_n_aIPimiET_S1_T0_RKT1_St26random_access_iterator_tag
	.weak_definition __ZSt10__fill_n_aIPimiET_S1_T0_RKT1_St26random_access_iterator_tag
__ZSt10__fill_n_aIPimiET_S1_T0_RKT1_St26random_access_iterator_tag:
LFB3183:
	stp	x29, x30, [sp, -48]!
LCFI417:
	mov	x29, sp
	str	x0, [sp, 40]
	str	x1, [sp, 32]
	str	x2, [sp, 24]
	strb	w3, [sp, 16]
	ldr	x0, [sp, 32]
	cmp	x0, 0
	bne	L449
	ldr	x0, [sp, 40]
	b	L450
L449:
	ldr	x0, [sp, 32]
	lsl	x0, x0, 2
	ldr	x1, [sp, 40]
	add	x0, x1, x0
	ldr	x2, [sp, 24]
	mov	x1, x0
	ldr	x0, [sp, 40]
	bl	__ZSt8__fill_aIPiiEvT_S1_RKT0_
	ldr	x0, [sp, 32]
	lsl	x0, x0, 2
	ldr	x1, [sp, 40]
	add	x0, x1, x0
L450:
	ldp	x29, x30, [sp], 48
LCFI418:
	ret
LFE3183:
	.align	2
	.globl __ZSt12__miter_baseIPPiET_S2_
	.weak_definition __ZSt12__miter_baseIPPiET_S2_
__ZSt12__miter_baseIPPiET_S2_:
LFB3184:
	sub	sp, sp, #16
LCFI419:
	str	x0, [sp, 8]
	ldr	x0, [sp, 8]
	add	sp, sp, 16
LCFI420:
	ret
LFE3184:
	.align	2
	.globl __ZSt13__copy_move_aILb0EPPiS1_ET1_T0_S3_S2_
	.weak_definition __ZSt13__copy_move_aILb0EPPiS1_ET1_T0_S3_S2_
__ZSt13__copy_move_aILb0EPPiS1_ET1_T0_S3_S2_:
LFB3185:
	stp	x29, x30, [sp, -64]!
LCFI421:
	mov	x29, sp
	stp	x19, x20, [sp, 16]
LCFI422:
	str	x0, [sp, 56]
	str	x1, [sp, 48]
	str	x2, [sp, 40]
	ldr	x0, [sp, 56]
	bl	__ZSt12__niter_baseIPPiET_S2_
	mov	x19, x0
	ldr	x0, [sp, 48]
	bl	__ZSt12__niter_baseIPPiET_S2_
	mov	x20, x0
	ldr	x0, [sp, 40]
	bl	__ZSt12__niter_baseIPPiET_S2_
	mov	x2, x0
	mov	x1, x20
	mov	x0, x19
	bl	__ZSt14__copy_move_a1ILb0EPPiS1_ET1_T0_S3_S2_
	mov	x1, x0
	add	x0, sp, 40
	bl	__ZSt12__niter_wrapIPPiET_RKS2_S2_
	ldp	x19, x20, [sp, 16]
	ldp	x29, x30, [sp], 64
LCFI423:
	ret
LFE3185:
	.align	2
	.globl __ZSt22__copy_move_backward_aILb0EPPiS1_ET1_T0_S3_S2_
	.weak_definition __ZSt22__copy_move_backward_aILb0EPPiS1_ET1_T0_S3_S2_
__ZSt22__copy_move_backward_aILb0EPPiS1_ET1_T0_S3_S2_:
LFB3187:
	stp	x29, x30, [sp, -64]!
LCFI424:
	mov	x29, sp
	stp	x19, x20, [sp, 16]
LCFI425:
	str	x0, [sp, 56]
	str	x1, [sp, 48]
	str	x2, [sp, 40]
	ldr	x0, [sp, 56]
	bl	__ZSt12__niter_baseIPPiET_S2_
	mov	x19, x0
	ldr	x0, [sp, 48]
	bl	__ZSt12__niter_baseIPPiET_S2_
	mov	x20, x0
	ldr	x0, [sp, 40]
	bl	__ZSt12__niter_baseIPPiET_S2_
	mov	x2, x0
	mov	x1, x20
	mov	x0, x19
	bl	__ZSt23__copy_move_backward_a1ILb0EPPiS1_ET1_T0_S3_S2_
	mov	x1, x0
	add	x0, sp, 40
	bl	__ZSt12__niter_wrapIPPiET_RKS2_S2_
	ldp	x19, x20, [sp, 16]
	ldp	x29, x30, [sp], 64
LCFI426:
	ret
LFE3187:
	.align	2
	.globl __ZN9__gnu_cxx14__alloc_traitsISaIiEiE17_S_select_on_copyERKS1_
	.weak_definition __ZN9__gnu_cxx14__alloc_traitsISaIiEiE17_S_select_on_copyERKS1_
__ZN9__gnu_cxx14__alloc_traitsISaIiEiE17_S_select_on_copyERKS1_:
LFB3188:
	stp	x29, x30, [sp, -48]!
LCFI427:
	mov	x29, sp
	str	x19, [sp, 16]
LCFI428:
	mov	x19, x8
	str	x0, [sp, 40]
	mov	x8, x19
	ldr	x0, [sp, 40]
	bl	__ZNSt16allocator_traitsISaIiEE37select_on_container_copy_constructionERKS0_
	mov	x0, x19
	ldr	x19, [sp, 16]
	ldp	x29, x30, [sp], 48
LCFI429:
	ret
LFE3188:
	.align	2
	.globl __ZNSt12_Vector_baseIiSaIiEEC2EmRKS0_
	.weak_definition __ZNSt12_Vector_baseIiSaIiEEC2EmRKS0_
__ZNSt12_Vector_baseIiSaIiEEC2EmRKS0_:
LFB3190:
	stp	x29, x30, [sp, -64]!
LCFI430:
	mov	x29, sp
	str	x19, [sp, 16]
LCFI431:
	str	x0, [sp, 56]
	str	x1, [sp, 48]
	str	x2, [sp, 40]
	ldr	x0, [sp, 56]
	ldr	x1, [sp, 40]
	bl	__ZNSt12_Vector_baseIiSaIiEE12_Vector_implC1ERKS0_
	ldr	x1, [sp, 48]
	ldr	x0, [sp, 56]
LEHB53:
	bl	__ZNSt12_Vector_baseIiSaIiEE17_M_create_storageEm
LEHE53:
	b	L462
L461:
	mov	x19, x0
	ldr	x0, [sp, 56]
	bl	__ZNSt12_Vector_baseIiSaIiEE12_Vector_implD1Ev
	mov	x0, x19
LEHB54:
	bl	__Unwind_Resume
LEHE54:
L462:
	ldr	x19, [sp, 16]
	ldp	x29, x30, [sp], 64
LCFI432:
	ret
LFE3190:
	.section __DATA,__gcc_except_tab
_GCC_except_table24:
LLSDA3190:
	.byte	0xff
	.byte	0xff
	.byte	0x1
	.uleb128 LLSDACSE3190-LLSDACSB3190
LLSDACSB3190:
	.uleb128 LEHB53-LFB3190
	.uleb128 LEHE53-LEHB53
	.uleb128 L461-LFB3190
	.uleb128 0
	.uleb128 LEHB54-LFB3190
	.uleb128 LEHE54-LEHB54
	.uleb128 0
	.uleb128 0
LLSDACSE3190:
	.text
	.align	2
	.globl __ZNKSt6vectorIiSaIiEE5beginEv
	.weak_definition __ZNKSt6vectorIiSaIiEE5beginEv
__ZNKSt6vectorIiSaIiEE5beginEv:
LFB3192:
	stp	x29, x30, [sp, -48]!
LCFI433:
	mov	x29, sp
	str	x0, [sp, 24]
	ldr	x1, [sp, 24]
	add	x0, sp, 40
	bl	__ZN9__gnu_cxx17__normal_iteratorIPKiSt6vectorIiSaIiEEEC1ERKS2_
	ldr	x0, [sp, 40]
	ldp	x29, x30, [sp], 48
LCFI434:
	ret
LFE3192:
	.align	2
	.globl __ZNKSt6vectorIiSaIiEE3endEv
	.weak_definition __ZNKSt6vectorIiSaIiEE3endEv
__ZNKSt6vectorIiSaIiEE3endEv:
LFB3193:
	stp	x29, x30, [sp, -48]!
LCFI435:
	mov	x29, sp
	str	x0, [sp, 24]
	ldr	x0, [sp, 24]
	add	x1, x0, 8
	add	x0, sp, 40
	bl	__ZN9__gnu_cxx17__normal_iteratorIPKiSt6vectorIiSaIiEEEC1ERKS2_
	ldr	x0, [sp, 40]
	ldp	x29, x30, [sp], 48
LCFI436:
	ret
LFE3193:
	.align	2
	.globl __ZSt22__uninitialized_copy_aIN9__gnu_cxx17__normal_iteratorIPKiSt6vectorIiSaIiEEEEPiiET0_T_SA_S9_RSaIT1_E
	.weak_definition __ZSt22__uninitialized_copy_aIN9__gnu_cxx17__normal_iteratorIPKiSt6vectorIiSaIiEEEEPiiET0_T_SA_S9_RSaIT1_E
__ZSt22__uninitialized_copy_aIN9__gnu_cxx17__normal_iteratorIPKiSt6vectorIiSaIiEEEEPiiET0_T_SA_S9_RSaIT1_E:
LFB3194:
	stp	x29, x30, [sp, -48]!
LCFI437:
	mov	x29, sp
	str	x0, [sp, 40]
	str	x1, [sp, 32]
	str	x2, [sp, 24]
	str	x3, [sp, 16]
	ldr	x2, [sp, 24]
	ldr	x1, [sp, 32]
	ldr	x0, [sp, 40]
	bl	__ZSt18uninitialized_copyIN9__gnu_cxx17__normal_iteratorIPKiSt6vectorIiSaIiEEEEPiET0_T_SA_S9_
	ldp	x29, x30, [sp], 48
LCFI438:
	ret
LFE3194:
	.align	2
	.globl __ZNSt12_Vector_baseIiSaIiEE17_Vector_impl_dataC2Ev
	.weak_definition __ZNSt12_Vector_baseIiSaIiEE17_Vector_impl_dataC2Ev
__ZNSt12_Vector_baseIiSaIiEE17_Vector_impl_dataC2Ev:
LFB3198:
	sub	sp, sp, #16
LCFI439:
	str	x0, [sp, 8]
	ldr	x0, [sp, 8]
	str	xzr, [x0]
	ldr	x0, [sp, 8]
	str	xzr, [x0, 8]
	ldr	x0, [sp, 8]
	str	xzr, [x0, 16]
	nop
	add	sp, sp, 16
LCFI440:
	ret
LFE3198:
	.align	2
	.globl __ZSt4moveIRSt6vectorIiSaIiEEEONSt16remove_referenceIT_E4typeEOS5_
	.weak_definition __ZSt4moveIRSt6vectorIiSaIiEEEONSt16remove_referenceIT_E4typeEOS5_
__ZSt4moveIRSt6vectorIiSaIiEEEONSt16remove_referenceIT_E4typeEOS5_:
LFB3200:
	sub	sp, sp, #16
LCFI441:
	str	x0, [sp, 8]
	ldr	x0, [sp, 8]
	add	sp, sp, 16
LCFI442:
	ret
LFE3200:
	.align	2
	.globl __ZNSt16allocator_traitsISaISt6vectorIiSaIiEEEE9constructIS2_JS2_EEEvRS3_PT_DpOT0_
	.weak_definition __ZNSt16allocator_traitsISaISt6vectorIiSaIiEEEE9constructIS2_JS2_EEEvRS3_PT_DpOT0_
__ZNSt16allocator_traitsISaISt6vectorIiSaIiEEEE9constructIS2_JS2_EEEvRS3_PT_DpOT0_:
LFB3201:
	stp	x29, x30, [sp, -48]!
LCFI443:
	mov	x29, sp
	str	x0, [sp, 40]
	str	x1, [sp, 32]
	str	x2, [sp, 24]
	ldr	x0, [sp, 24]
	bl	__ZSt7forwardISt6vectorIiSaIiEEEOT_RNSt16remove_referenceIS3_E4typeE
	mov	x2, x0
	ldr	x1, [sp, 32]
	ldr	x0, [sp, 40]
	bl	__ZN9__gnu_cxx13new_allocatorISt6vectorIiSaIiEEE9constructIS3_JS3_EEEvPT_DpOT0_
	nop
	ldp	x29, x30, [sp], 48
LCFI444:
	ret
LFE3201:
	.align	2
	.globl __ZNSt16allocator_traitsISaISt6vectorIiSaIiEEEE7destroyIS2_EEvRS3_PT_
	.weak_definition __ZNSt16allocator_traitsISaISt6vectorIiSaIiEEEE7destroyIS2_EEvRS3_PT_
__ZNSt16allocator_traitsISaISt6vectorIiSaIiEEEE7destroyIS2_EEvRS3_PT_:
LFB3202:
	stp	x29, x30, [sp, -32]!
LCFI445:
	mov	x29, sp
	str	x0, [sp, 24]
	str	x1, [sp, 16]
	ldr	x1, [sp, 16]
	ldr	x0, [sp, 24]
	bl	__ZN9__gnu_cxx13new_allocatorISt6vectorIiSaIiEEE7destroyIS3_EEvPT_
	nop
	ldp	x29, x30, [sp], 32
LCFI446:
	ret
LFE3202:
	.align	2
	.globl __ZSt8__fill_aIPiiEvT_S1_RKT0_
	.weak_definition __ZSt8__fill_aIPiiEvT_S1_RKT0_
__ZSt8__fill_aIPiiEvT_S1_RKT0_:
LFB3203:
	stp	x29, x30, [sp, -48]!
LCFI447:
	mov	x29, sp
	str	x0, [sp, 40]
	str	x1, [sp, 32]
	str	x2, [sp, 24]
	ldr	x2, [sp, 24]
	ldr	x1, [sp, 32]
	ldr	x0, [sp, 40]
	bl	__ZSt9__fill_a1IPiiEN9__gnu_cxx11__enable_ifIXsrSt11__is_scalarIT0_E7__valueEvE6__typeET_S8_RKS4_
	nop
	ldp	x29, x30, [sp], 48
LCFI448:
	ret
LFE3203:
	.align	2
	.globl __ZSt12__niter_baseIPPiET_S2_
	.weak_definition __ZSt12__niter_baseIPPiET_S2_
__ZSt12__niter_baseIPPiET_S2_:
LFB3204:
	sub	sp, sp, #16
LCFI449:
	str	x0, [sp, 8]
	ldr	x0, [sp, 8]
	add	sp, sp, 16
LCFI450:
	ret
LFE3204:
	.align	2
	.globl __ZSt14__copy_move_a1ILb0EPPiS1_ET1_T0_S3_S2_
	.weak_definition __ZSt14__copy_move_a1ILb0EPPiS1_ET1_T0_S3_S2_
__ZSt14__copy_move_a1ILb0EPPiS1_ET1_T0_S3_S2_:
LFB3205:
	stp	x29, x30, [sp, -48]!
LCFI451:
	mov	x29, sp
	str	x0, [sp, 40]
	str	x1, [sp, 32]
	str	x2, [sp, 24]
	ldr	x2, [sp, 24]
	ldr	x1, [sp, 32]
	ldr	x0, [sp, 40]
	bl	__ZSt14__copy_move_a2ILb0EPPiS1_ET1_T0_S3_S2_
	ldp	x29, x30, [sp], 48
LCFI452:
	ret
LFE3205:
	.align	2
	.globl __ZSt12__niter_wrapIPPiET_RKS2_S2_
	.weak_definition __ZSt12__niter_wrapIPPiET_RKS2_S2_
__ZSt12__niter_wrapIPPiET_RKS2_S2_:
LFB3206:
	sub	sp, sp, #16
LCFI453:
	str	x0, [sp, 8]
	str	x1, [sp]
	ldr	x0, [sp]
	add	sp, sp, 16
LCFI454:
	ret
LFE3206:
	.align	2
	.globl __ZSt23__copy_move_backward_a1ILb0EPPiS1_ET1_T0_S3_S2_
	.weak_definition __ZSt23__copy_move_backward_a1ILb0EPPiS1_ET1_T0_S3_S2_
__ZSt23__copy_move_backward_a1ILb0EPPiS1_ET1_T0_S3_S2_:
LFB3207:
	stp	x29, x30, [sp, -48]!
LCFI455:
	mov	x29, sp
	str	x0, [sp, 40]
	str	x1, [sp, 32]
	str	x2, [sp, 24]
	ldr	x2, [sp, 24]
	ldr	x1, [sp, 32]
	ldr	x0, [sp, 40]
	bl	__ZSt23__copy_move_backward_a2ILb0EPPiS1_ET1_T0_S3_S2_
	ldp	x29, x30, [sp], 48
LCFI456:
	ret
LFE3207:
	.align	2
	.globl __ZNSt16allocator_traitsISaIiEE37select_on_container_copy_constructionERKS0_
	.weak_definition __ZNSt16allocator_traitsISaIiEE37select_on_container_copy_constructionERKS0_
__ZNSt16allocator_traitsISaIiEE37select_on_container_copy_constructionERKS0_:
LFB3208:
	stp	x29, x30, [sp, -48]!
LCFI457:
	mov	x29, sp
	str	x19, [sp, 16]
LCFI458:
	mov	x19, x8
	str	x0, [sp, 40]
	ldr	x1, [sp, 40]
	mov	x0, x19
	bl	__ZNSaIiEC1ERKS_
	mov	x0, x19
	ldr	x19, [sp, 16]
	ldp	x29, x30, [sp], 48
LCFI459:
	ret
LFE3208:
	.align	2
	.globl __ZNSt12_Vector_baseIiSaIiEE12_Vector_implC1ERKS0_
	.weak_definition __ZNSt12_Vector_baseIiSaIiEE12_Vector_implC1ERKS0_
__ZNSt12_Vector_baseIiSaIiEE12_Vector_implC1ERKS0_:
LFB3211:
	stp	x29, x30, [sp, -32]!
LCFI460:
	mov	x29, sp
	str	x0, [sp, 24]
	str	x1, [sp, 16]
	ldr	x1, [sp, 16]
	ldr	x0, [sp, 24]
	bl	__ZNSaIiEC2ERKS_
	ldr	x0, [sp, 24]
	bl	__ZNSt12_Vector_baseIiSaIiEE17_Vector_impl_dataC2Ev
	nop
	ldp	x29, x30, [sp], 32
LCFI461:
	ret
LFE3211:
	.align	2
	.globl __ZNSt12_Vector_baseIiSaIiEE17_M_create_storageEm
	.weak_definition __ZNSt12_Vector_baseIiSaIiEE17_M_create_storageEm
__ZNSt12_Vector_baseIiSaIiEE17_M_create_storageEm:
LFB3212:
	stp	x29, x30, [sp, -32]!
LCFI462:
	mov	x29, sp
	str	x0, [sp, 24]
	str	x1, [sp, 16]
	ldr	x1, [sp, 16]
	ldr	x0, [sp, 24]
	bl	__ZNSt12_Vector_baseIiSaIiEE11_M_allocateEm
	mov	x1, x0
	ldr	x0, [sp, 24]
	str	x1, [x0]
	ldr	x0, [sp, 24]
	ldr	x1, [x0]
	ldr	x0, [sp, 24]
	str	x1, [x0, 8]
	ldr	x0, [sp, 24]
	ldr	x1, [x0]
	ldr	x0, [sp, 16]
	lsl	x0, x0, 2
	add	x1, x1, x0
	ldr	x0, [sp, 24]
	str	x1, [x0, 16]
	nop
	ldp	x29, x30, [sp], 32
LCFI463:
	ret
LFE3212:
	.align	2
	.globl __ZN9__gnu_cxx17__normal_iteratorIPKiSt6vectorIiSaIiEEEC1ERKS2_
	.weak_definition __ZN9__gnu_cxx17__normal_iteratorIPKiSt6vectorIiSaIiEEEC1ERKS2_
__ZN9__gnu_cxx17__normal_iteratorIPKiSt6vectorIiSaIiEEEC1ERKS2_:
LFB3215:
	sub	sp, sp, #16
LCFI464:
	str	x0, [sp, 8]
	str	x1, [sp]
	ldr	x0, [sp]
	ldr	x1, [x0]
	ldr	x0, [sp, 8]
	str	x1, [x0]
	nop
	add	sp, sp, 16
LCFI465:
	ret
LFE3215:
	.align	2
	.globl __ZSt18uninitialized_copyIN9__gnu_cxx17__normal_iteratorIPKiSt6vectorIiSaIiEEEEPiET0_T_SA_S9_
	.weak_definition __ZSt18uninitialized_copyIN9__gnu_cxx17__normal_iteratorIPKiSt6vectorIiSaIiEEEEPiET0_T_SA_S9_
__ZSt18uninitialized_copyIN9__gnu_cxx17__normal_iteratorIPKiSt6vectorIiSaIiEEEEPiET0_T_SA_S9_:
LFB3216:
	stp	x29, x30, [sp, -64]!
LCFI466:
	mov	x29, sp
	str	x0, [sp, 40]
	str	x1, [sp, 32]
	str	x2, [sp, 24]
	mov	w0, 1
	strb	w0, [sp, 63]
	ldr	x2, [sp, 24]
	ldr	x1, [sp, 32]
	ldr	x0, [sp, 40]
	bl	__ZNSt20__uninitialized_copyILb1EE13__uninit_copyIN9__gnu_cxx17__normal_iteratorIPKiSt6vectorIiSaIiEEEEPiEET0_T_SC_SB_
	ldp	x29, x30, [sp], 64
LCFI467:
	ret
LFE3216:
	.align	2
	.globl __ZSt7forwardISt6vectorIiSaIiEEEOT_RNSt16remove_referenceIS3_E4typeE
	.weak_definition __ZSt7forwardISt6vectorIiSaIiEEEOT_RNSt16remove_referenceIS3_E4typeE
__ZSt7forwardISt6vectorIiSaIiEEEOT_RNSt16remove_referenceIS3_E4typeE:
LFB3218:
	sub	sp, sp, #16
LCFI468:
	str	x0, [sp, 8]
	ldr	x0, [sp, 8]
	add	sp, sp, 16
LCFI469:
	ret
LFE3218:
	.align	2
	.globl __ZNSt12_Vector_baseIiSaIiEEC2EOS1_
	.weak_definition __ZNSt12_Vector_baseIiSaIiEEC2EOS1_
__ZNSt12_Vector_baseIiSaIiEEC2EOS1_:
LFB3222:
	stp	x29, x30, [sp, -32]!
LCFI470:
	mov	x29, sp
	str	x0, [sp, 24]
	str	x1, [sp, 16]
	ldr	x0, [sp, 24]
	ldr	x1, [sp, 16]
	bl	__ZNSt12_Vector_baseIiSaIiEE12_Vector_implC1EOS2_
	nop
	ldp	x29, x30, [sp], 32
LCFI471:
	ret
LFE3222:
	.align	2
	.globl __ZNSt6vectorIiSaIiEEC1EOS1_
	.weak_definition __ZNSt6vectorIiSaIiEEC1EOS1_
__ZNSt6vectorIiSaIiEEC1EOS1_:
LFB3225:
	stp	x29, x30, [sp, -32]!
LCFI472:
	mov	x29, sp
	str	x0, [sp, 24]
	str	x1, [sp, 16]
	ldr	x0, [sp, 24]
	ldr	x1, [sp, 16]
	bl	__ZNSt12_Vector_baseIiSaIiEEC2EOS1_
	nop
	ldp	x29, x30, [sp], 32
LCFI473:
	ret
LFE3225:
	.align	2
	.globl __ZN9__gnu_cxx13new_allocatorISt6vectorIiSaIiEEE9constructIS3_JS3_EEEvPT_DpOT0_
	.weak_definition __ZN9__gnu_cxx13new_allocatorISt6vectorIiSaIiEEE9constructIS3_JS3_EEEvPT_DpOT0_
__ZN9__gnu_cxx13new_allocatorISt6vectorIiSaIiEEE9constructIS3_JS3_EEEvPT_DpOT0_:
LFB3219:
	stp	x29, x30, [sp, -64]!
LCFI474:
	mov	x29, sp
	str	x19, [sp, 16]
LCFI475:
	str	x0, [sp, 56]
	str	x1, [sp, 48]
	str	x2, [sp, 40]
	ldr	x0, [sp, 40]
	bl	__ZSt7forwardISt6vectorIiSaIiEEEOT_RNSt16remove_referenceIS3_E4typeE
	mov	x19, x0
	ldr	x0, [sp, 48]
	mov	x1, x0
	mov	x0, 24
	bl	__ZnwmPv
	mov	x1, x19
	bl	__ZNSt6vectorIiSaIiEEC1EOS1_
	nop
	ldr	x19, [sp, 16]
	ldp	x29, x30, [sp], 64
LCFI476:
	ret
LFE3219:
	.align	2
	.globl __ZN9__gnu_cxx13new_allocatorISt6vectorIiSaIiEEE7destroyIS3_EEvPT_
	.weak_definition __ZN9__gnu_cxx13new_allocatorISt6vectorIiSaIiEEE7destroyIS3_EEvPT_
__ZN9__gnu_cxx13new_allocatorISt6vectorIiSaIiEEE7destroyIS3_EEvPT_:
LFB3226:
	stp	x29, x30, [sp, -32]!
LCFI477:
	mov	x29, sp
	str	x0, [sp, 24]
	str	x1, [sp, 16]
	ldr	x0, [sp, 16]
	bl	__ZNSt6vectorIiSaIiEED1Ev
	nop
	ldp	x29, x30, [sp], 32
LCFI478:
	ret
LFE3226:
	.align	2
	.globl __ZSt9__fill_a1IPiiEN9__gnu_cxx11__enable_ifIXsrSt11__is_scalarIT0_E7__valueEvE6__typeET_S8_RKS4_
	.weak_definition __ZSt9__fill_a1IPiiEN9__gnu_cxx11__enable_ifIXsrSt11__is_scalarIT0_E7__valueEvE6__typeET_S8_RKS4_
__ZSt9__fill_a1IPiiEN9__gnu_cxx11__enable_ifIXsrSt11__is_scalarIT0_E7__valueEvE6__typeET_S8_RKS4_:
LFB3227:
	sub	sp, sp, #48
LCFI479:
	str	x0, [sp, 24]
	str	x1, [sp, 16]
	str	x2, [sp, 8]
	ldr	x0, [sp, 8]
	ldr	w0, [x0]
	str	w0, [sp, 44]
	b	L497
L498:
	ldr	x0, [sp, 24]
	ldr	w1, [sp, 44]
	str	w1, [x0]
	ldr	x0, [sp, 24]
	add	x0, x0, 4
	str	x0, [sp, 24]
L497:
	ldr	x1, [sp, 24]
	ldr	x0, [sp, 16]
	cmp	x1, x0
	bne	L498
	nop
	nop
	add	sp, sp, 48
LCFI480:
	ret
LFE3227:
	.align	2
	.globl __ZSt14__copy_move_a2ILb0EPPiS1_ET1_T0_S3_S2_
	.weak_definition __ZSt14__copy_move_a2ILb0EPPiS1_ET1_T0_S3_S2_
__ZSt14__copy_move_a2ILb0EPPiS1_ET1_T0_S3_S2_:
LFB3228:
	stp	x29, x30, [sp, -48]!
LCFI481:
	mov	x29, sp
	str	x0, [sp, 40]
	str	x1, [sp, 32]
	str	x2, [sp, 24]
	ldr	x2, [sp, 24]
	ldr	x1, [sp, 32]
	ldr	x0, [sp, 40]
	bl	__ZNSt11__copy_moveILb0ELb1ESt26random_access_iterator_tagE8__copy_mIPiEEPT_PKS4_S7_S5_
	ldp	x29, x30, [sp], 48
LCFI482:
	ret
LFE3228:
	.align	2
	.globl __ZSt23__copy_move_backward_a2ILb0EPPiS1_ET1_T0_S3_S2_
	.weak_definition __ZSt23__copy_move_backward_a2ILb0EPPiS1_ET1_T0_S3_S2_
__ZSt23__copy_move_backward_a2ILb0EPPiS1_ET1_T0_S3_S2_:
LFB3229:
	stp	x29, x30, [sp, -48]!
LCFI483:
	mov	x29, sp
	str	x0, [sp, 40]
	str	x1, [sp, 32]
	str	x2, [sp, 24]
	ldr	x2, [sp, 24]
	ldr	x1, [sp, 32]
	ldr	x0, [sp, 40]
	bl	__ZNSt20__copy_move_backwardILb0ELb1ESt26random_access_iterator_tagE13__copy_move_bIPiEEPT_PKS4_S7_S5_
	ldp	x29, x30, [sp], 48
LCFI484:
	ret
LFE3229:
	.align	2
	.globl __ZNSaIiEC2ERKS_
	.weak_definition __ZNSaIiEC2ERKS_
__ZNSaIiEC2ERKS_:
LFB3231:
	stp	x29, x30, [sp, -32]!
LCFI485:
	mov	x29, sp
	str	x0, [sp, 24]
	str	x1, [sp, 16]
	ldr	x1, [sp, 16]
	ldr	x0, [sp, 24]
	bl	__ZN9__gnu_cxx13new_allocatorIiEC2ERKS1_
	nop
	ldp	x29, x30, [sp], 32
LCFI486:
	ret
LFE3231:
	.align	2
	.globl __ZNSaIiEC1ERKS_
	.weak_definition __ZNSaIiEC1ERKS_
__ZNSaIiEC1ERKS_:
LFB3232:
	stp	x29, x30, [sp, -32]!
LCFI487:
	mov	x29, sp
	str	x0, [sp, 24]
	str	x1, [sp, 16]
	ldr	x1, [sp, 16]
	ldr	x0, [sp, 24]
	bl	__ZN9__gnu_cxx13new_allocatorIiEC2ERKS1_
	nop
	ldp	x29, x30, [sp], 32
LCFI488:
	ret
LFE3232:
	.align	2
	.globl __ZNSt20__uninitialized_copyILb1EE13__uninit_copyIN9__gnu_cxx17__normal_iteratorIPKiSt6vectorIiSaIiEEEEPiEET0_T_SC_SB_
	.weak_definition __ZNSt20__uninitialized_copyILb1EE13__uninit_copyIN9__gnu_cxx17__normal_iteratorIPKiSt6vectorIiSaIiEEEEPiEET0_T_SC_SB_
__ZNSt20__uninitialized_copyILb1EE13__uninit_copyIN9__gnu_cxx17__normal_iteratorIPKiSt6vectorIiSaIiEEEEPiEET0_T_SC_SB_:
LFB3233:
	stp	x29, x30, [sp, -48]!
LCFI489:
	mov	x29, sp
	str	x0, [sp, 40]
	str	x1, [sp, 32]
	str	x2, [sp, 24]
	ldr	x2, [sp, 24]
	ldr	x1, [sp, 32]
	ldr	x0, [sp, 40]
	bl	__ZSt4copyIN9__gnu_cxx17__normal_iteratorIPKiSt6vectorIiSaIiEEEEPiET0_T_SA_S9_
	ldp	x29, x30, [sp], 48
LCFI490:
	ret
LFE3233:
	.align	2
	.globl __ZNSt12_Vector_baseIiSaIiEE12_Vector_implC1EOS2_
	.weak_definition __ZNSt12_Vector_baseIiSaIiEE12_Vector_implC1EOS2_
__ZNSt12_Vector_baseIiSaIiEE12_Vector_implC1EOS2_:
LFB3236:
	stp	x29, x30, [sp, -48]!
LCFI491:
	mov	x29, sp
	str	x19, [sp, 16]
LCFI492:
	str	x0, [sp, 40]
	str	x1, [sp, 32]
	ldr	x0, [sp, 32]
	bl	__ZSt4moveIRNSt12_Vector_baseIiSaIiEE12_Vector_implEEONSt16remove_referenceIT_E4typeEOS6_
	mov	x1, x0
	ldr	x0, [sp, 40]
	bl	__ZNSaIiEC2ERKS_
	ldr	x19, [sp, 40]
	ldr	x0, [sp, 32]
	bl	__ZSt4moveIRNSt12_Vector_baseIiSaIiEE12_Vector_implEEONSt16remove_referenceIT_E4typeEOS6_
	mov	x1, x0
	mov	x0, x19
	bl	__ZNSt12_Vector_baseIiSaIiEE17_Vector_impl_dataC2EOS2_
	nop
	ldr	x19, [sp, 16]
	ldp	x29, x30, [sp], 48
LCFI493:
	ret
LFE3236:
	.align	2
	.globl __ZNSt11__copy_moveILb0ELb1ESt26random_access_iterator_tagE8__copy_mIPiEEPT_PKS4_S7_S5_
	.weak_definition __ZNSt11__copy_moveILb0ELb1ESt26random_access_iterator_tagE8__copy_mIPiEEPT_PKS4_S7_S5_
__ZNSt11__copy_moveILb0ELb1ESt26random_access_iterator_tagE8__copy_mIPiEEPT_PKS4_S7_S5_:
LFB3237:
	stp	x29, x30, [sp, -64]!
LCFI494:
	mov	x29, sp
	str	x0, [sp, 40]
	str	x1, [sp, 32]
	str	x2, [sp, 24]
	ldr	x1, [sp, 32]
	ldr	x0, [sp, 40]
	sub	x0, x1, x0
	asr	x0, x0, 3
	str	x0, [sp, 56]
	ldr	x0, [sp, 56]
	cmp	x0, 0
	beq	L509
	ldr	x0, [sp, 56]
	lsl	x0, x0, 3
	mov	x2, x0
	ldr	x1, [sp, 40]
	ldr	x0, [sp, 24]
	bl	_memmove
L509:
	ldr	x0, [sp, 56]
	lsl	x0, x0, 3
	ldr	x1, [sp, 24]
	add	x0, x1, x0
	ldp	x29, x30, [sp], 64
LCFI495:
	ret
LFE3237:
	.align	2
	.globl __ZNSt20__copy_move_backwardILb0ELb1ESt26random_access_iterator_tagE13__copy_move_bIPiEEPT_PKS4_S7_S5_
	.weak_definition __ZNSt20__copy_move_backwardILb0ELb1ESt26random_access_iterator_tagE13__copy_move_bIPiEEPT_PKS4_S7_S5_
__ZNSt20__copy_move_backwardILb0ELb1ESt26random_access_iterator_tagE13__copy_move_bIPiEEPT_PKS4_S7_S5_:
LFB3238:
	stp	x29, x30, [sp, -64]!
LCFI496:
	mov	x29, sp
	str	x0, [sp, 40]
	str	x1, [sp, 32]
	str	x2, [sp, 24]
	ldr	x1, [sp, 32]
	ldr	x0, [sp, 40]
	sub	x0, x1, x0
	asr	x0, x0, 3
	str	x0, [sp, 56]
	ldr	x0, [sp, 56]
	cmp	x0, 0
	beq	L512
	ldr	x0, [sp, 56]
	lsl	x0, x0, 3
	neg	x0, x0
	ldr	x1, [sp, 24]
	add	x3, x1, x0
	ldr	x0, [sp, 56]
	lsl	x0, x0, 3
	mov	x2, x0
	ldr	x1, [sp, 40]
	mov	x0, x3
	bl	_memmove
L512:
	ldr	x0, [sp, 56]
	lsl	x0, x0, 3
	neg	x0, x0
	ldr	x1, [sp, 24]
	add	x0, x1, x0
	ldp	x29, x30, [sp], 64
LCFI497:
	ret
LFE3238:
	.align	2
	.globl __ZN9__gnu_cxx13new_allocatorIiEC2ERKS1_
	.weak_definition __ZN9__gnu_cxx13new_allocatorIiEC2ERKS1_
__ZN9__gnu_cxx13new_allocatorIiEC2ERKS1_:
LFB3240:
	sub	sp, sp, #16
LCFI498:
	str	x0, [sp, 8]
	str	x1, [sp]
	nop
	add	sp, sp, 16
LCFI499:
	ret
LFE3240:
	.align	2
	.globl __ZSt4copyIN9__gnu_cxx17__normal_iteratorIPKiSt6vectorIiSaIiEEEEPiET0_T_SA_S9_
	.weak_definition __ZSt4copyIN9__gnu_cxx17__normal_iteratorIPKiSt6vectorIiSaIiEEEEPiET0_T_SA_S9_
__ZSt4copyIN9__gnu_cxx17__normal_iteratorIPKiSt6vectorIiSaIiEEEEPiET0_T_SA_S9_:
LFB3242:
	stp	x29, x30, [sp, -64]!
LCFI500:
	mov	x29, sp
	str	x19, [sp, 16]
LCFI501:
	str	x0, [sp, 56]
	str	x1, [sp, 48]
	str	x2, [sp, 40]
	ldr	x0, [sp, 56]
	bl	__ZSt12__miter_baseIN9__gnu_cxx17__normal_iteratorIPKiSt6vectorIiSaIiEEEEET_S8_
	mov	x19, x0
	ldr	x0, [sp, 48]
	bl	__ZSt12__miter_baseIN9__gnu_cxx17__normal_iteratorIPKiSt6vectorIiSaIiEEEEET_S8_
	ldr	x2, [sp, 40]
	mov	x1, x0
	mov	x0, x19
	bl	__ZSt13__copy_move_aILb0EN9__gnu_cxx17__normal_iteratorIPKiSt6vectorIiSaIiEEEEPiET1_T0_SA_S9_
	ldr	x19, [sp, 16]
	ldp	x29, x30, [sp], 64
LCFI502:
	ret
LFE3242:
	.align	2
	.globl __ZSt4moveIRNSt12_Vector_baseIiSaIiEE12_Vector_implEEONSt16remove_referenceIT_E4typeEOS6_
	.weak_definition __ZSt4moveIRNSt12_Vector_baseIiSaIiEE12_Vector_implEEONSt16remove_referenceIT_E4typeEOS6_
__ZSt4moveIRNSt12_Vector_baseIiSaIiEE12_Vector_implEEONSt16remove_referenceIT_E4typeEOS6_:
LFB3243:
	sub	sp, sp, #16
LCFI503:
	str	x0, [sp, 8]
	ldr	x0, [sp, 8]
	add	sp, sp, 16
LCFI504:
	ret
LFE3243:
	.align	2
	.globl __ZNSt12_Vector_baseIiSaIiEE17_Vector_impl_dataC2EOS2_
	.weak_definition __ZNSt12_Vector_baseIiSaIiEE17_Vector_impl_dataC2EOS2_
__ZNSt12_Vector_baseIiSaIiEE17_Vector_impl_dataC2EOS2_:
LFB3245:
	sub	sp, sp, #16
LCFI505:
	str	x0, [sp, 8]
	str	x1, [sp]
	ldr	x0, [sp]
	ldr	x1, [x0]
	ldr	x0, [sp, 8]
	str	x1, [x0]
	ldr	x0, [sp]
	ldr	x1, [x0, 8]
	ldr	x0, [sp, 8]
	str	x1, [x0, 8]
	ldr	x0, [sp]
	ldr	x1, [x0, 16]
	ldr	x0, [sp, 8]
	str	x1, [x0, 16]
	ldr	x0, [sp]
	str	xzr, [x0, 16]
	ldr	x0, [sp]
	ldr	x1, [x0, 16]
	ldr	x0, [sp]
	str	x1, [x0, 8]
	ldr	x0, [sp]
	ldr	x1, [x0, 8]
	ldr	x0, [sp]
	str	x1, [x0]
	nop
	add	sp, sp, 16
LCFI506:
	ret
LFE3245:
	.align	2
	.globl __ZSt12__miter_baseIN9__gnu_cxx17__normal_iteratorIPKiSt6vectorIiSaIiEEEEET_S8_
	.weak_definition __ZSt12__miter_baseIN9__gnu_cxx17__normal_iteratorIPKiSt6vectorIiSaIiEEEEET_S8_
__ZSt12__miter_baseIN9__gnu_cxx17__normal_iteratorIPKiSt6vectorIiSaIiEEEEET_S8_:
LFB3247:
	sub	sp, sp, #16
LCFI507:
	str	x0, [sp, 8]
	ldr	x0, [sp, 8]
	add	sp, sp, 16
LCFI508:
	ret
LFE3247:
	.align	2
	.globl __ZSt13__copy_move_aILb0EN9__gnu_cxx17__normal_iteratorIPKiSt6vectorIiSaIiEEEEPiET1_T0_SA_S9_
	.weak_definition __ZSt13__copy_move_aILb0EN9__gnu_cxx17__normal_iteratorIPKiSt6vectorIiSaIiEEEEPiET1_T0_SA_S9_
__ZSt13__copy_move_aILb0EN9__gnu_cxx17__normal_iteratorIPKiSt6vectorIiSaIiEEEEPiET1_T0_SA_S9_:
LFB3248:
	stp	x29, x30, [sp, -64]!
LCFI509:
	mov	x29, sp
	stp	x19, x20, [sp, 16]
LCFI510:
	str	x0, [sp, 56]
	str	x1, [sp, 48]
	str	x2, [sp, 40]
	ldr	x0, [sp, 56]
	bl	__ZSt12__niter_baseIPKiSt6vectorIiSaIiEEET_N9__gnu_cxx17__normal_iteratorIS5_T0_EE
	mov	x19, x0
	ldr	x0, [sp, 48]
	bl	__ZSt12__niter_baseIPKiSt6vectorIiSaIiEEET_N9__gnu_cxx17__normal_iteratorIS5_T0_EE
	mov	x20, x0
	ldr	x0, [sp, 40]
	bl	__ZSt12__niter_baseIPiET_S1_
	mov	x2, x0
	mov	x1, x20
	mov	x0, x19
	bl	__ZSt14__copy_move_a1ILb0EPKiPiET1_T0_S4_S3_
	mov	x1, x0
	add	x0, sp, 40
	bl	__ZSt12__niter_wrapIPiET_RKS1_S1_
	ldp	x19, x20, [sp, 16]
	ldp	x29, x30, [sp], 64
LCFI511:
	ret
LFE3248:
	.align	2
	.globl __ZSt12__niter_baseIPKiSt6vectorIiSaIiEEET_N9__gnu_cxx17__normal_iteratorIS5_T0_EE
	.weak_definition __ZSt12__niter_baseIPKiSt6vectorIiSaIiEEET_N9__gnu_cxx17__normal_iteratorIS5_T0_EE
__ZSt12__niter_baseIPKiSt6vectorIiSaIiEEET_N9__gnu_cxx17__normal_iteratorIS5_T0_EE:
LFB3250:
	stp	x29, x30, [sp, -32]!
LCFI512:
	mov	x29, sp
	str	x0, [sp, 24]
	add	x0, sp, 24
	bl	__ZNK9__gnu_cxx17__normal_iteratorIPKiSt6vectorIiSaIiEEE4baseEv
	ldr	x0, [x0]
	ldp	x29, x30, [sp], 32
LCFI513:
	ret
LFE3250:
	.align	2
	.globl __ZSt14__copy_move_a1ILb0EPKiPiET1_T0_S4_S3_
	.weak_definition __ZSt14__copy_move_a1ILb0EPKiPiET1_T0_S4_S3_
__ZSt14__copy_move_a1ILb0EPKiPiET1_T0_S4_S3_:
LFB3251:
	stp	x29, x30, [sp, -48]!
LCFI514:
	mov	x29, sp
	str	x0, [sp, 40]
	str	x1, [sp, 32]
	str	x2, [sp, 24]
	ldr	x2, [sp, 24]
	ldr	x1, [sp, 32]
	ldr	x0, [sp, 40]
	bl	__ZSt14__copy_move_a2ILb0EPKiPiET1_T0_S4_S3_
	ldp	x29, x30, [sp], 48
LCFI515:
	ret
LFE3251:
	.align	2
	.globl __ZSt12__niter_wrapIPiET_RKS1_S1_
	.weak_definition __ZSt12__niter_wrapIPiET_RKS1_S1_
__ZSt12__niter_wrapIPiET_RKS1_S1_:
LFB3252:
	sub	sp, sp, #16
LCFI516:
	str	x0, [sp, 8]
	str	x1, [sp]
	ldr	x0, [sp]
	add	sp, sp, 16
LCFI517:
	ret
LFE3252:
	.align	2
	.globl __ZNK9__gnu_cxx17__normal_iteratorIPKiSt6vectorIiSaIiEEE4baseEv
	.weak_definition __ZNK9__gnu_cxx17__normal_iteratorIPKiSt6vectorIiSaIiEEE4baseEv
__ZNK9__gnu_cxx17__normal_iteratorIPKiSt6vectorIiSaIiEEE4baseEv:
LFB3253:
	sub	sp, sp, #16
LCFI518:
	str	x0, [sp, 8]
	ldr	x0, [sp, 8]
	add	sp, sp, 16
LCFI519:
	ret
LFE3253:
	.align	2
	.globl __ZSt14__copy_move_a2ILb0EPKiPiET1_T0_S4_S3_
	.weak_definition __ZSt14__copy_move_a2ILb0EPKiPiET1_T0_S4_S3_
__ZSt14__copy_move_a2ILb0EPKiPiET1_T0_S4_S3_:
LFB3254:
	stp	x29, x30, [sp, -48]!
LCFI520:
	mov	x29, sp
	str	x0, [sp, 40]
	str	x1, [sp, 32]
	str	x2, [sp, 24]
	ldr	x2, [sp, 24]
	ldr	x1, [sp, 32]
	ldr	x0, [sp, 40]
	bl	__ZNSt11__copy_moveILb0ELb1ESt26random_access_iterator_tagE8__copy_mIiEEPT_PKS3_S6_S4_
	ldp	x29, x30, [sp], 48
LCFI521:
	ret
LFE3254:
	.align	2
	.globl __ZNSt11__copy_moveILb0ELb1ESt26random_access_iterator_tagE8__copy_mIiEEPT_PKS3_S6_S4_
	.weak_definition __ZNSt11__copy_moveILb0ELb1ESt26random_access_iterator_tagE8__copy_mIiEEPT_PKS3_S6_S4_
__ZNSt11__copy_moveILb0ELb1ESt26random_access_iterator_tagE8__copy_mIiEEPT_PKS3_S6_S4_:
LFB3255:
	stp	x29, x30, [sp, -64]!
LCFI522:
	mov	x29, sp
	str	x0, [sp, 40]
	str	x1, [sp, 32]
	str	x2, [sp, 24]
	ldr	x1, [sp, 32]
	ldr	x0, [sp, 40]
	sub	x0, x1, x0
	asr	x0, x0, 2
	str	x0, [sp, 56]
	ldr	x0, [sp, 56]
	cmp	x0, 0
	beq	L535
	ldr	x0, [sp, 56]
	lsl	x0, x0, 2
	mov	x2, x0
	ldr	x1, [sp, 40]
	ldr	x0, [sp, 24]
	bl	_memmove
L535:
	ldr	x0, [sp, 56]
	lsl	x0, x0, 2
	ldr	x1, [sp, 24]
	add	x0, x1, x0
	ldp	x29, x30, [sp], 64
LCFI523:
	ret
LFE3255:
	.align	2
__Z41__static_initialization_and_destruction_0ii:
LFB3256:
	stp	x29, x30, [sp, -32]!
LCFI524:
	mov	x29, sp
	str	w0, [sp, 28]
	str	w1, [sp, 24]
	ldr	w0, [sp, 28]
	cmp	w0, 1
	bne	L539
	ldr	w1, [sp, 24]
	mov	w0, 65535
	cmp	w1, w0
	bne	L539
	adrp	x0, __ZStL8__ioinit@PAGE
	add	x0, x0, __ZStL8__ioinit@PAGEOFF;momd
	bl	__ZNSt8ios_base4InitC1Ev
	adrp	x0, ___dso_handle@GOTPAGE
	ldr	x2, [x0, ___dso_handle@GOTPAGEOFF];momd
	adrp	x0, __ZStL8__ioinit@PAGE
	add	x1, x0, __ZStL8__ioinit@PAGEOFF;momd
	adrp	x0, __ZNSt8ios_base4InitD1Ev@GOTPAGE
	ldr	x0, [x0, __ZNSt8ios_base4InitD1Ev@GOTPAGEOFF];momd
	bl	___cxa_atexit
L539:
	nop
	ldp	x29, x30, [sp], 32
LCFI525:
	ret
LFE3256:
	.align	2
__GLOBAL__sub_I_Ford_Fulkerson_2.cpp:
LFB3257:
	stp	x29, x30, [sp, -16]!
LCFI526:
	mov	x29, sp
	mov	w1, 65535
	mov	w0, 1
	bl	__Z41__static_initialization_and_destruction_0ii
	ldp	x29, x30, [sp], 16
LCFI527:
	ret
LFE3257:
	.section __TEXT,__eh_frame,coalesced,no_toc+strip_static_syms+live_support
EH_frame1:
	.set L$set$0,LECIE1-LSCIE1
	.long L$set$0
LSCIE1:
	.long	0
	.byte	0x1
	.ascii "zPLR\0"
	.uleb128 0x1
	.sleb128 -8
	.byte	0x1e
	.uleb128 0x7
	.byte	0x9b
	.long	___gxx_personality_v0@GOT-.
	.byte	0x10
	.byte	0x10
	.byte	0xc
	.uleb128 0x1f
	.uleb128 0
	.align	3
LECIE1:
LSFDE1:
	.set L$set$1,LEFDE1-LASFDE1
	.long L$set$1
LASFDE1:
	.long	LASFDE1-EH_frame1
	.quad	LFB84-.
	.set L$set$2,LFE84-LFB84
	.quad L$set$2
	.uleb128 0x8
	.quad	0
	.byte	0x4
	.set L$set$3,LCFI0-LFB84
	.long L$set$3
	.byte	0xe
	.uleb128 0x10
	.byte	0x4
	.set L$set$4,LCFI1-LCFI0
	.long L$set$4
	.byte	0xe
	.uleb128 0
	.align	3
LEFDE1:
LSFDE3:
	.set L$set$5,LEFDE3-LASFDE3
	.long L$set$5
LASFDE3:
	.long	LASFDE3-EH_frame1
	.quad	LFB86-.
	.set L$set$6,LFE86-LFB86
	.quad L$set$6
	.uleb128 0x8
	.quad	0
	.byte	0x4
	.set L$set$7,LCFI2-LFB86
	.long L$set$7
	.byte	0xe
	.uleb128 0x10
	.byte	0x4
	.set L$set$8,LCFI3-LCFI2
	.long L$set$8
	.byte	0xe
	.uleb128 0
	.align	3
LEFDE3:
LSFDE5:
	.set L$set$9,LEFDE5-LASFDE5
	.long L$set$9
LASFDE5:
	.long	LASFDE5-EH_frame1
	.quad	LFB416-.
	.set L$set$10,LFE416-LFB416
	.quad L$set$10
	.uleb128 0x8
	.quad	0
	.byte	0x4
	.set L$set$11,LCFI4-LFB416
	.long L$set$11
	.byte	0xe
	.uleb128 0x10
	.byte	0x4
	.set L$set$12,LCFI5-LCFI4
	.long L$set$12
	.byte	0xe
	.uleb128 0
	.align	3
LEFDE5:
LSFDE7:
	.set L$set$13,LEFDE7-LASFDE7
	.long L$set$13
LASFDE7:
	.long	LASFDE7-EH_frame1
	.quad	LFB2133-.
	.set L$set$14,LFE2133-LFB2133
	.quad L$set$14
	.uleb128 0x8
	.quad	0
	.byte	0x4
	.set L$set$15,LCFI6-LFB2133
	.long L$set$15
	.byte	0xe
	.uleb128 0x10
	.byte	0x4
	.set L$set$16,LCFI7-LCFI6
	.long L$set$16
	.byte	0xe
	.uleb128 0
	.align	3
LEFDE7:
LSFDE9:
	.set L$set$17,LEFDE9-LASFDE9
	.long L$set$17
LASFDE9:
	.long	LASFDE9-EH_frame1
	.quad	LFB2403-.
	.set L$set$18,LFE2403-LFB2403
	.quad L$set$18
	.uleb128 0x8
	.quad	0
	.byte	0x4
	.set L$set$19,LCFI8-LFB2403
	.long L$set$19
	.byte	0xe
	.uleb128 0x20
	.byte	0x9d
	.uleb128 0x4
	.byte	0x9e
	.uleb128 0x3
	.byte	0x4
	.set L$set$20,LCFI9-LCFI8
	.long L$set$20
	.byte	0xde
	.byte	0xdd
	.byte	0xe
	.uleb128 0
	.align	3
LEFDE9:
LSFDE11:
	.set L$set$21,LEFDE11-LASFDE11
	.long L$set$21
LASFDE11:
	.long	LASFDE11-EH_frame1
	.quad	LFB2404-.
	.set L$set$22,LFE2404-LFB2404
	.quad L$set$22
	.uleb128 0x8
	.quad	0
	.byte	0x4
	.set L$set$23,LCFI10-LFB2404
	.long L$set$23
	.byte	0xe
	.uleb128 0x20
	.byte	0x9d
	.uleb128 0x4
	.byte	0x9e
	.uleb128 0x3
	.byte	0x4
	.set L$set$24,LCFI11-LCFI10
	.long L$set$24
	.byte	0xde
	.byte	0xdd
	.byte	0xe
	.uleb128 0
	.align	3
LEFDE11:
LSFDE13:
	.set L$set$25,LEFDE13-LASFDE13
	.long L$set$25
LASFDE13:
	.long	LASFDE13-EH_frame1
	.quad	LFB2407-.
	.set L$set$26,LFE2407-LFB2407
	.quad L$set$26
	.uleb128 0x8
	.quad	0
	.byte	0x4
	.set L$set$27,LCFI12-LFB2407
	.long L$set$27
	.byte	0xe
	.uleb128 0x20
	.byte	0x9d
	.uleb128 0x4
	.byte	0x9e
	.uleb128 0x3
	.byte	0x4
	.set L$set$28,LCFI13-LCFI12
	.long L$set$28
	.byte	0xde
	.byte	0xdd
	.byte	0xe
	.uleb128 0
	.align	3
LEFDE13:
LSFDE15:
	.set L$set$29,LEFDE15-LASFDE15
	.long L$set$29
LASFDE15:
	.long	LASFDE15-EH_frame1
	.quad	LFB2411-.
	.set L$set$30,LFE2411-LFB2411
	.quad L$set$30
	.uleb128 0x8
	.quad	LLSDA2411-.
	.byte	0x4
	.set L$set$31,LCFI14-LFB2411
	.long L$set$31
	.byte	0xe
	.uleb128 0x40
	.byte	0x9d
	.uleb128 0x8
	.byte	0x9e
	.uleb128 0x7
	.byte	0x4
	.set L$set$32,LCFI15-LCFI14
	.long L$set$32
	.byte	0x93
	.uleb128 0x6
	.byte	0x4
	.set L$set$33,LCFI16-LCFI15
	.long L$set$33
	.byte	0xde
	.byte	0xdd
	.byte	0xd3
	.byte	0xe
	.uleb128 0
	.align	3
LEFDE15:
LSFDE17:
	.set L$set$34,LEFDE17-LASFDE17
	.long L$set$34
LASFDE17:
	.long	LASFDE17-EH_frame1
	.quad	LFB2412-.
	.set L$set$35,LFE2412-LFB2412
	.quad L$set$35
	.uleb128 0x8
	.quad	LLSDA2412-.
	.byte	0x4
	.set L$set$36,LCFI17-LFB2412
	.long L$set$36
	.byte	0xe
	.uleb128 0x40
	.byte	0x9d
	.uleb128 0x8
	.byte	0x9e
	.uleb128 0x7
	.byte	0x4
	.set L$set$37,LCFI18-LCFI17
	.long L$set$37
	.byte	0x93
	.uleb128 0x6
	.byte	0x4
	.set L$set$38,LCFI19-LCFI18
	.long L$set$38
	.byte	0xde
	.byte	0xdd
	.byte	0xd3
	.byte	0xe
	.uleb128 0
	.align	3
LEFDE17:
LSFDE19:
	.set L$set$39,LEFDE19-LASFDE19
	.long L$set$39
LASFDE19:
	.long	LASFDE19-EH_frame1
	.quad	LFB2417-.
	.set L$set$40,LFE2417-LFB2417
	.quad L$set$40
	.uleb128 0x8
	.quad	0
	.byte	0x4
	.set L$set$41,LCFI20-LFB2417
	.long L$set$41
	.byte	0xe
	.uleb128 0x20
	.byte	0x9d
	.uleb128 0x4
	.byte	0x9e
	.uleb128 0x3
	.byte	0x4
	.set L$set$42,LCFI21-LCFI20
	.long L$set$42
	.byte	0xde
	.byte	0xdd
	.byte	0xe
	.uleb128 0
	.align	3
LEFDE19:
LSFDE21:
	.set L$set$43,LEFDE21-LASFDE21
	.long L$set$43
LASFDE21:
	.long	LASFDE21-EH_frame1
	.quad	LFB2413-.
	.set L$set$44,LFE2413-LFB2413
	.quad L$set$44
	.uleb128 0x8
	.quad	LLSDA2413-.
	.byte	0x4
	.set L$set$45,LCFI22-LFB2413
	.long L$set$45
	.byte	0xe
	.uleb128 0xc0
	.byte	0x9d
	.uleb128 0x18
	.byte	0x9e
	.uleb128 0x17
	.byte	0x4
	.set L$set$46,LCFI23-LCFI22
	.long L$set$46
	.byte	0xd
	.uleb128 0x1d
	.byte	0x4
	.set L$set$47,LCFI24-LCFI23
	.long L$set$47
	.byte	0x93
	.uleb128 0x16
	.byte	0x94
	.uleb128 0x15
	.byte	0x4
	.set L$set$48,LCFI25-LCFI24
	.long L$set$48
	.byte	0xde
	.byte	0xdd
	.byte	0xd3
	.byte	0xd4
	.byte	0xc
	.uleb128 0x1f
	.uleb128 0
	.align	3
LEFDE21:
LSFDE23:
	.set L$set$49,LEFDE23-LASFDE23
	.long L$set$49
LASFDE23:
	.long	LASFDE23-EH_frame1
	.quad	LFB2418-.
	.set L$set$50,LFE2418-LFB2418
	.quad L$set$50
	.uleb128 0x8
	.quad	0
	.byte	0x4
	.set L$set$51,LCFI26-LFB2418
	.long L$set$51
	.byte	0xe
	.uleb128 0x40
	.byte	0x9d
	.uleb128 0x8
	.byte	0x9e
	.uleb128 0x7
	.byte	0x4
	.set L$set$52,LCFI27-LCFI26
	.long L$set$52
	.byte	0xde
	.byte	0xdd
	.byte	0xe
	.uleb128 0
	.align	3
LEFDE23:
LSFDE25:
	.set L$set$53,LEFDE25-LASFDE25
	.long L$set$53
LASFDE25:
	.long	LASFDE25-EH_frame1
	.quad	LFB2419-.
	.set L$set$54,LFE2419-LFB2419
	.quad L$set$54
	.uleb128 0x8
	.quad	LLSDA2419-.
	.byte	0x4
	.set L$set$55,LCFI28-LFB2419
	.long L$set$55
	.byte	0xe
	.uleb128 0xe0
	.byte	0x9d
	.uleb128 0x1c
	.byte	0x9e
	.uleb128 0x1b
	.byte	0x4
	.set L$set$56,LCFI29-LCFI28
	.long L$set$56
	.byte	0xd
	.uleb128 0x1d
	.byte	0x4
	.set L$set$57,LCFI30-LCFI29
	.long L$set$57
	.byte	0x93
	.uleb128 0x1a
	.byte	0x94
	.uleb128 0x19
	.byte	0x95
	.uleb128 0x18
	.byte	0x96
	.uleb128 0x17
	.byte	0x97
	.uleb128 0x16
	.byte	0x98
	.uleb128 0x15
	.byte	0x99
	.uleb128 0x14
	.byte	0x9a
	.uleb128 0x13
	.byte	0x9b
	.uleb128 0x12
	.byte	0x9c
	.uleb128 0x11
	.byte	0x4
	.set L$set$58,LCFI31-LCFI30
	.long L$set$58
	.byte	0xde
	.byte	0xdd
	.byte	0xdb
	.byte	0xdc
	.byte	0xd9
	.byte	0xda
	.byte	0xd7
	.byte	0xd8
	.byte	0xd5
	.byte	0xd6
	.byte	0xd3
	.byte	0xd4
	.byte	0xc
	.uleb128 0x1f
	.uleb128 0
	.align	3
LEFDE25:
LSFDE27:
	.set L$set$59,LEFDE27-LASFDE27
	.long L$set$59
LASFDE27:
	.long	LASFDE27-EH_frame1
	.quad	LFB2420-.
	.set L$set$60,LFE2420-LFB2420
	.quad L$set$60
	.uleb128 0x8
	.quad	0
	.byte	0x4
	.set L$set$61,LCFI32-LFB2420
	.long L$set$61
	.byte	0xe
	.uleb128 0x40
	.byte	0x9d
	.uleb128 0x8
	.byte	0x9e
	.uleb128 0x7
	.byte	0x4
	.set L$set$62,LCFI33-LCFI32
	.long L$set$62
	.byte	0x93
	.uleb128 0x6
	.byte	0x4
	.set L$set$63,LCFI34-LCFI33
	.long L$set$63
	.byte	0xde
	.byte	0xdd
	.byte	0xd3
	.byte	0xe
	.uleb128 0
	.align	3
LEFDE27:
LSFDE29:
	.set L$set$64,LEFDE29-LASFDE29
	.long L$set$64
LASFDE29:
	.long	LASFDE29-EH_frame1
	.quad	LFB2424-.
	.set L$set$65,LFE2424-LFB2424
	.quad L$set$65
	.uleb128 0x8
	.quad	0
	.byte	0x4
	.set L$set$66,LCFI35-LFB2424
	.long L$set$66
	.byte	0xe
	.uleb128 0x20
	.byte	0x9d
	.uleb128 0x4
	.byte	0x9e
	.uleb128 0x3
	.byte	0x4
	.set L$set$67,LCFI36-LCFI35
	.long L$set$67
	.byte	0xde
	.byte	0xdd
	.byte	0xe
	.uleb128 0
	.align	3
LEFDE29:
LSFDE31:
	.set L$set$68,LEFDE31-LASFDE31
	.long L$set$68
LASFDE31:
	.long	LASFDE31-EH_frame1
	.quad	LFB2421-.
	.set L$set$69,LFE2421-LFB2421
	.quad L$set$69
	.uleb128 0x8
	.quad	LLSDA2421-.
	.byte	0x4
	.set L$set$70,LCFI37-LFB2421
	.long L$set$70
	.byte	0xe
	.uleb128 0x40
	.byte	0x9d
	.uleb128 0x8
	.byte	0x9e
	.uleb128 0x7
	.byte	0x4
	.set L$set$71,LCFI38-LCFI37
	.long L$set$71
	.byte	0x93
	.uleb128 0x6
	.byte	0x4
	.set L$set$72,LCFI39-LCFI38
	.long L$set$72
	.byte	0xde
	.byte	0xdd
	.byte	0xd3
	.byte	0xe
	.uleb128 0
	.align	3
LEFDE31:
LSFDE33:
	.set L$set$73,LEFDE33-LASFDE33
	.long L$set$73
LASFDE33:
	.long	LASFDE33-EH_frame1
	.quad	LFB2687-.
	.set L$set$74,LFE2687-LFB2687
	.quad L$set$74
	.uleb128 0x8
	.quad	0
	.byte	0x4
	.set L$set$75,LCFI40-LFB2687
	.long L$set$75
	.byte	0xe
	.uleb128 0x20
	.byte	0x9d
	.uleb128 0x4
	.byte	0x9e
	.uleb128 0x3
	.byte	0x4
	.set L$set$76,LCFI41-LCFI40
	.long L$set$76
	.byte	0xde
	.byte	0xdd
	.byte	0xe
	.uleb128 0
	.align	3
LEFDE33:
LSFDE35:
	.set L$set$77,LEFDE35-LASFDE35
	.long L$set$77
LASFDE35:
	.long	LASFDE35-EH_frame1
	.quad	LFB2689-.
	.set L$set$78,LFE2689-LFB2689
	.quad L$set$78
	.uleb128 0x8
	.quad	0
	.byte	0x4
	.set L$set$79,LCFI42-LFB2689
	.long L$set$79
	.byte	0xe
	.uleb128 0x20
	.byte	0x9d
	.uleb128 0x4
	.byte	0x9e
	.uleb128 0x3
	.byte	0x4
	.set L$set$80,LCFI43-LCFI42
	.long L$set$80
	.byte	0xde
	.byte	0xdd
	.byte	0xe
	.uleb128 0
	.align	3
LEFDE35:
LSFDE37:
	.set L$set$81,LEFDE37-LASFDE37
	.long L$set$81
LASFDE37:
	.long	LASFDE37-EH_frame1
	.quad	LFB2690-.
	.set L$set$82,LFE2690-LFB2690
	.quad L$set$82
	.uleb128 0x8
	.quad	0
	.byte	0x4
	.set L$set$83,LCFI44-LFB2690
	.long L$set$83
	.byte	0xe
	.uleb128 0x20
	.byte	0x9d
	.uleb128 0x4
	.byte	0x9e
	.uleb128 0x3
	.byte	0x4
	.set L$set$84,LCFI45-LCFI44
	.long L$set$84
	.byte	0xde
	.byte	0xdd
	.byte	0xe
	.uleb128 0
	.align	3
LEFDE37:
LSFDE39:
	.set L$set$85,LEFDE39-LASFDE39
	.long L$set$85
LASFDE39:
	.long	LASFDE39-EH_frame1
	.quad	LFB2692-.
	.set L$set$86,LFE2692-LFB2692
	.quad L$set$86
	.uleb128 0x8
	.quad	LLSDA2692-.
	.byte	0x4
	.set L$set$87,LCFI46-LFB2692
	.long L$set$87
	.byte	0xe
	.uleb128 0x20
	.byte	0x9d
	.uleb128 0x4
	.byte	0x9e
	.uleb128 0x3
	.byte	0x4
	.set L$set$88,LCFI47-LCFI46
	.long L$set$88
	.byte	0xde
	.byte	0xdd
	.byte	0xe
	.uleb128 0
	.align	3
LEFDE39:
LSFDE41:
	.set L$set$89,LEFDE41-LASFDE41
	.long L$set$89
LASFDE41:
	.long	LASFDE41-EH_frame1
	.quad	LFB2696-.
	.set L$set$90,LFE2696-LFB2696
	.quad L$set$90
	.uleb128 0x8
	.quad	LLSDA2696-.
	.byte	0x4
	.set L$set$91,LCFI48-LFB2696
	.long L$set$91
	.byte	0xe
	.uleb128 0x30
	.byte	0x9d
	.uleb128 0x6
	.byte	0x9e
	.uleb128 0x5
	.byte	0x4
	.set L$set$92,LCFI49-LCFI48
	.long L$set$92
	.byte	0x93
	.uleb128 0x4
	.byte	0x94
	.uleb128 0x3
	.byte	0x4
	.set L$set$93,LCFI50-LCFI49
	.long L$set$93
	.byte	0xde
	.byte	0xdd
	.byte	0xd3
	.byte	0xd4
	.byte	0xe
	.uleb128 0
	.align	3
LEFDE41:
LSFDE43:
	.set L$set$94,LEFDE43-LASFDE43
	.long L$set$94
LASFDE43:
	.long	LASFDE43-EH_frame1
	.quad	LFB2697-.
	.set L$set$95,LFE2697-LFB2697
	.quad L$set$95
	.uleb128 0x8
	.quad	0
	.byte	0x4
	.set L$set$96,LCFI51-LFB2697
	.long L$set$96
	.byte	0xe
	.uleb128 0x20
	.byte	0x9d
	.uleb128 0x4
	.byte	0x9e
	.uleb128 0x3
	.byte	0x4
	.set L$set$97,LCFI52-LCFI51
	.long L$set$97
	.byte	0xde
	.byte	0xdd
	.byte	0xe
	.uleb128 0
	.align	3
LEFDE43:
LSFDE45:
	.set L$set$98,LEFDE45-LASFDE45
	.long L$set$98
LASFDE45:
	.long	LASFDE45-EH_frame1
	.quad	LFB2698-.
	.set L$set$99,LFE2698-LFB2698
	.quad L$set$99
	.uleb128 0x8
	.quad	0
	.byte	0x4
	.set L$set$100,LCFI53-LFB2698
	.long L$set$100
	.byte	0xe
	.uleb128 0x10
	.byte	0x4
	.set L$set$101,LCFI54-LCFI53
	.long L$set$101
	.byte	0xe
	.uleb128 0
	.align	3
LEFDE45:
LSFDE47:
	.set L$set$102,LEFDE47-LASFDE47
	.long L$set$102
LASFDE47:
	.long	LASFDE47-EH_frame1
	.quad	LFB2699-.
	.set L$set$103,LFE2699-LFB2699
	.quad L$set$103
	.uleb128 0x8
	.quad	0
	.byte	0x4
	.set L$set$104,LCFI55-LFB2699
	.long L$set$104
	.byte	0xe
	.uleb128 0x20
	.byte	0x9d
	.uleb128 0x4
	.byte	0x9e
	.uleb128 0x3
	.byte	0x4
	.set L$set$105,LCFI56-LCFI55
	.long L$set$105
	.byte	0xde
	.byte	0xdd
	.byte	0xe
	.uleb128 0
	.align	3
LEFDE47:
LSFDE49:
	.set L$set$106,LEFDE49-LASFDE49
	.long L$set$106
LASFDE49:
	.long	LASFDE49-EH_frame1
	.quad	LFB2703-.
	.set L$set$107,LFE2703-LFB2703
	.quad L$set$107
	.uleb128 0x8
	.quad	0
	.byte	0x4
	.set L$set$108,LCFI57-LFB2703
	.long L$set$108
	.byte	0xe
	.uleb128 0x20
	.byte	0x9d
	.uleb128 0x4
	.byte	0x9e
	.uleb128 0x3
	.byte	0x4
	.set L$set$109,LCFI58-LCFI57
	.long L$set$109
	.byte	0xde
	.byte	0xdd
	.byte	0xe
	.uleb128 0
	.align	3
LEFDE49:
LSFDE51:
	.set L$set$110,LEFDE51-LASFDE51
	.long L$set$110
LASFDE51:
	.long	LASFDE51-EH_frame1
	.quad	LFB2705-.
	.set L$set$111,LFE2705-LFB2705
	.quad L$set$111
	.uleb128 0x8
	.quad	0
	.byte	0x4
	.set L$set$112,LCFI59-LFB2705
	.long L$set$112
	.byte	0xe
	.uleb128 0x20
	.byte	0x9d
	.uleb128 0x4
	.byte	0x9e
	.uleb128 0x3
	.byte	0x4
	.set L$set$113,LCFI60-LCFI59
	.long L$set$113
	.byte	0xde
	.byte	0xdd
	.byte	0xe
	.uleb128 0
	.align	3
LEFDE51:
LSFDE53:
	.set L$set$114,LEFDE53-LASFDE53
	.long L$set$114
LASFDE53:
	.long	LASFDE53-EH_frame1
	.quad	LFB2708-.
	.set L$set$115,LFE2708-LFB2708
	.quad L$set$115
	.uleb128 0x8
	.quad	LLSDA2708-.
	.byte	0x4
	.set L$set$116,LCFI61-LFB2708
	.long L$set$116
	.byte	0xe
	.uleb128 0x60
	.byte	0x9d
	.uleb128 0xc
	.byte	0x9e
	.uleb128 0xb
	.byte	0x4
	.set L$set$117,LCFI62-LCFI61
	.long L$set$117
	.byte	0xde
	.byte	0xdd
	.byte	0xe
	.uleb128 0
	.align	3
LEFDE53:
LSFDE55:
	.set L$set$118,LEFDE55-LASFDE55
	.long L$set$118
LASFDE55:
	.long	LASFDE55-EH_frame1
	.quad	LFB2709-.
	.set L$set$119,LFE2709-LFB2709
	.quad L$set$119
	.uleb128 0x8
	.quad	0
	.byte	0x4
	.set L$set$120,LCFI63-LFB2709
	.long L$set$120
	.byte	0xe
	.uleb128 0x20
	.byte	0x9d
	.uleb128 0x4
	.byte	0x9e
	.uleb128 0x3
	.byte	0x4
	.set L$set$121,LCFI64-LCFI63
	.long L$set$121
	.byte	0xde
	.byte	0xdd
	.byte	0xe
	.uleb128 0
	.align	3
LEFDE55:
LSFDE57:
	.set L$set$122,LEFDE57-LASFDE57
	.long L$set$122
LASFDE57:
	.long	LASFDE57-EH_frame1
	.quad	LFB2710-.
	.set L$set$123,LFE2710-LFB2710
	.quad L$set$123
	.uleb128 0x8
	.quad	0
	.byte	0x4
	.set L$set$124,LCFI65-LFB2710
	.long L$set$124
	.byte	0xe
	.uleb128 0x20
	.byte	0x9d
	.uleb128 0x4
	.byte	0x9e
	.uleb128 0x3
	.byte	0x4
	.set L$set$125,LCFI66-LCFI65
	.long L$set$125
	.byte	0xde
	.byte	0xdd
	.byte	0xe
	.uleb128 0
	.align	3
LEFDE57:
LSFDE59:
	.set L$set$126,LEFDE59-LASFDE59
	.long L$set$126
LASFDE59:
	.long	LASFDE59-EH_frame1
	.quad	LFB2711-.
	.set L$set$127,LFE2711-LFB2711
	.quad L$set$127
	.uleb128 0x8
	.quad	0
	.byte	0x4
	.set L$set$128,LCFI67-LFB2711
	.long L$set$128
	.byte	0xe
	.uleb128 0x20
	.byte	0x9d
	.uleb128 0x4
	.byte	0x9e
	.uleb128 0x3
	.byte	0x4
	.set L$set$129,LCFI68-LCFI67
	.long L$set$129
	.byte	0xde
	.byte	0xdd
	.byte	0xe
	.uleb128 0
	.align	3
LEFDE59:
LSFDE61:
	.set L$set$130,LEFDE61-LASFDE61
	.long L$set$130
LASFDE61:
	.long	LASFDE61-EH_frame1
	.quad	LFB2712-.
	.set L$set$131,LFE2712-LFB2712
	.quad L$set$131
	.uleb128 0x8
	.quad	0
	.byte	0x4
	.set L$set$132,LCFI69-LFB2712
	.long L$set$132
	.byte	0xe
	.uleb128 0x10
	.byte	0x4
	.set L$set$133,LCFI70-LCFI69
	.long L$set$133
	.byte	0xe
	.uleb128 0
	.align	3
LEFDE61:
LSFDE63:
	.set L$set$134,LEFDE63-LASFDE63
	.long L$set$134
LASFDE63:
	.long	LASFDE63-EH_frame1
	.quad	LFB2713-.
	.set L$set$135,LFE2713-LFB2713
	.quad L$set$135
	.uleb128 0x8
	.quad	0
	.byte	0x4
	.set L$set$136,LCFI71-LFB2713
	.long L$set$136
	.byte	0xe
	.uleb128 0x20
	.byte	0x9d
	.uleb128 0x4
	.byte	0x9e
	.uleb128 0x3
	.byte	0x4
	.set L$set$137,LCFI72-LCFI71
	.long L$set$137
	.byte	0xde
	.byte	0xdd
	.byte	0xe
	.uleb128 0
	.align	3
LEFDE63:
LSFDE65:
	.set L$set$138,LEFDE65-LASFDE65
	.long L$set$138
LASFDE65:
	.long	LASFDE65-EH_frame1
	.quad	LFB2716-.
	.set L$set$139,LFE2716-LFB2716
	.quad L$set$139
	.uleb128 0x8
	.quad	LLSDA2716-.
	.byte	0x4
	.set L$set$140,LCFI73-LFB2716
	.long L$set$140
	.byte	0xe
	.uleb128 0x50
	.byte	0x9d
	.uleb128 0xa
	.byte	0x9e
	.uleb128 0x9
	.byte	0x4
	.set L$set$141,LCFI74-LCFI73
	.long L$set$141
	.byte	0x93
	.uleb128 0x8
	.byte	0x94
	.uleb128 0x7
	.byte	0x95
	.uleb128 0x6
	.byte	0x4
	.set L$set$142,LCFI75-LCFI74
	.long L$set$142
	.byte	0xde
	.byte	0xdd
	.byte	0xd5
	.byte	0xd3
	.byte	0xd4
	.byte	0xe
	.uleb128 0
	.align	3
LEFDE65:
LSFDE67:
	.set L$set$143,LEFDE67-LASFDE67
	.long L$set$143
LASFDE67:
	.long	LASFDE67-EH_frame1
	.quad	LFB2798-.
	.set L$set$144,LFE2798-LFB2798
	.quad L$set$144
	.uleb128 0x8
	.quad	0
	.byte	0x4
	.set L$set$145,LCFI76-LFB2798
	.long L$set$145
	.byte	0xe
	.uleb128 0x20
	.byte	0x9d
	.uleb128 0x4
	.byte	0x9e
	.uleb128 0x3
	.byte	0x4
	.set L$set$146,LCFI77-LCFI76
	.long L$set$146
	.byte	0xde
	.byte	0xdd
	.byte	0xe
	.uleb128 0
	.align	3
LEFDE67:
LSFDE69:
	.set L$set$147,LEFDE69-LASFDE69
	.long L$set$147
LASFDE69:
	.long	LASFDE69-EH_frame1
	.quad	LFB2801-.
	.set L$set$148,LFE2801-LFB2801
	.quad L$set$148
	.uleb128 0x8
	.quad	0
	.byte	0x4
	.set L$set$149,LCFI78-LFB2801
	.long L$set$149
	.byte	0xe
	.uleb128 0x10
	.byte	0x4
	.set L$set$150,LCFI79-LCFI78
	.long L$set$150
	.byte	0xe
	.uleb128 0
	.align	3
LEFDE69:
LSFDE71:
	.set L$set$151,LEFDE71-LASFDE71
	.long L$set$151
LASFDE71:
	.long	LASFDE71-EH_frame1
	.quad	LFB2804-.
	.set L$set$152,LFE2804-LFB2804
	.quad L$set$152
	.uleb128 0x8
	.quad	0
	.byte	0x4
	.set L$set$153,LCFI80-LFB2804
	.long L$set$153
	.byte	0xe
	.uleb128 0x10
	.byte	0x4
	.set L$set$154,LCFI81-LCFI80
	.long L$set$154
	.byte	0xe
	.uleb128 0
	.align	3
LEFDE71:
LSFDE73:
	.set L$set$155,LEFDE73-LASFDE73
	.long L$set$155
LASFDE73:
	.long	LASFDE73-EH_frame1
	.quad	LFB2806-.
	.set L$set$156,LFE2806-LFB2806
	.quad L$set$156
	.uleb128 0x8
	.quad	0
	.byte	0x4
	.set L$set$157,LCFI82-LFB2806
	.long L$set$157
	.byte	0xe
	.uleb128 0x30
	.byte	0x9d
	.uleb128 0x6
	.byte	0x9e
	.uleb128 0x5
	.byte	0x4
	.set L$set$158,LCFI83-LCFI82
	.long L$set$158
	.byte	0xde
	.byte	0xdd
	.byte	0xe
	.uleb128 0
	.align	3
LEFDE73:
LSFDE75:
	.set L$set$159,LEFDE75-LASFDE75
	.long L$set$159
LASFDE75:
	.long	LASFDE75-EH_frame1
	.quad	LFB2807-.
	.set L$set$160,LFE2807-LFB2807
	.quad L$set$160
	.uleb128 0x8
	.quad	0
	.byte	0x4
	.set L$set$161,LCFI84-LFB2807
	.long L$set$161
	.byte	0xe
	.uleb128 0x10
	.byte	0x4
	.set L$set$162,LCFI85-LCFI84
	.long L$set$162
	.byte	0xe
	.uleb128 0
	.align	3
LEFDE75:
LSFDE77:
	.set L$set$163,LEFDE77-LASFDE77
	.long L$set$163
LASFDE77:
	.long	LASFDE77-EH_frame1
	.quad	LFB2808-.
	.set L$set$164,LFE2808-LFB2808
	.quad L$set$164
	.uleb128 0x8
	.quad	0
	.byte	0x4
	.set L$set$165,LCFI86-LFB2808
	.long L$set$165
	.byte	0xe
	.uleb128 0x30
	.byte	0x9d
	.uleb128 0x6
	.byte	0x9e
	.uleb128 0x5
	.byte	0x4
	.set L$set$166,LCFI87-LCFI86
	.long L$set$166
	.byte	0xde
	.byte	0xdd
	.byte	0xe
	.uleb128 0
	.align	3
LEFDE77:
LSFDE79:
	.set L$set$167,LEFDE79-LASFDE79
	.long L$set$167
LASFDE79:
	.long	LASFDE79-EH_frame1
	.quad	LFB2809-.
	.set L$set$168,LFE2809-LFB2809
	.quad L$set$168
	.uleb128 0x8
	.quad	0
	.byte	0x4
	.set L$set$169,LCFI88-LFB2809
	.long L$set$169
	.byte	0xe
	.uleb128 0x10
	.byte	0x4
	.set L$set$170,LCFI89-LCFI88
	.long L$set$170
	.byte	0xe
	.uleb128 0
	.align	3
LEFDE79:
LSFDE81:
	.set L$set$171,LEFDE81-LASFDE81
	.long L$set$171
LASFDE81:
	.long	LASFDE81-EH_frame1
	.quad	LFB2810-.
	.set L$set$172,LFE2810-LFB2810
	.quad L$set$172
	.uleb128 0x8
	.quad	LLSDA2810-.
	.byte	0x4
	.set L$set$173,LCFI90-LFB2810
	.long L$set$173
	.byte	0xe
	.uleb128 0x50
	.byte	0x9d
	.uleb128 0xa
	.byte	0x9e
	.uleb128 0x9
	.byte	0x4
	.set L$set$174,LCFI91-LCFI90
	.long L$set$174
	.byte	0x93
	.uleb128 0x8
	.byte	0x94
	.uleb128 0x7
	.byte	0x4
	.set L$set$175,LCFI92-LCFI91
	.long L$set$175
	.byte	0xde
	.byte	0xdd
	.byte	0xd3
	.byte	0xd4
	.byte	0xe
	.uleb128 0
	.align	3
LEFDE81:
LSFDE83:
	.set L$set$176,LEFDE83-LASFDE83
	.long L$set$176
LASFDE83:
	.long	LASFDE83-EH_frame1
	.quad	LFB2815-.
	.set L$set$177,LFE2815-LFB2815
	.quad L$set$177
	.uleb128 0x8
	.quad	LLSDA2815-.
	.byte	0x4
	.set L$set$178,LCFI93-LFB2815
	.long L$set$178
	.byte	0xe
	.uleb128 0x40
	.byte	0x9d
	.uleb128 0x8
	.byte	0x9e
	.uleb128 0x7
	.byte	0x4
	.set L$set$179,LCFI94-LCFI93
	.long L$set$179
	.byte	0x93
	.uleb128 0x6
	.byte	0x4
	.set L$set$180,LCFI95-LCFI94
	.long L$set$180
	.byte	0xde
	.byte	0xdd
	.byte	0xd3
	.byte	0xe
	.uleb128 0
	.align	3
LEFDE83:
LSFDE85:
	.set L$set$181,LEFDE85-LASFDE85
	.long L$set$181
LASFDE85:
	.long	LASFDE85-EH_frame1
	.quad	LFB2816-.
	.set L$set$182,LFE2816-LFB2816
	.quad L$set$182
	.uleb128 0x8
	.quad	0
	.byte	0x4
	.set L$set$183,LCFI96-LFB2816
	.long L$set$183
	.byte	0xe
	.uleb128 0x10
	.byte	0x4
	.set L$set$184,LCFI97-LCFI96
	.long L$set$184
	.byte	0xe
	.uleb128 0
	.align	3
LEFDE85:
LSFDE87:
	.set L$set$185,LEFDE87-LASFDE87
	.long L$set$185
LASFDE87:
	.long	LASFDE87-EH_frame1
	.quad	LFB2817-.
	.set L$set$186,LFE2817-LFB2817
	.quad L$set$186
	.uleb128 0x8
	.quad	LLSDA2817-.
	.byte	0x4
	.set L$set$187,LCFI98-LFB2817
	.long L$set$187
	.byte	0xe
	.uleb128 0x50
	.byte	0x9d
	.uleb128 0xa
	.byte	0x9e
	.uleb128 0x9
	.byte	0x4
	.set L$set$188,LCFI99-LCFI98
	.long L$set$188
	.byte	0x93
	.uleb128 0x8
	.byte	0x94
	.uleb128 0x7
	.byte	0x4
	.set L$set$189,LCFI100-LCFI99
	.long L$set$189
	.byte	0xde
	.byte	0xdd
	.byte	0xd3
	.byte	0xd4
	.byte	0xe
	.uleb128 0
	.align	3
LEFDE87:
LSFDE89:
	.set L$set$190,LEFDE89-LASFDE89
	.long L$set$190
LASFDE89:
	.long	LASFDE89-EH_frame1
	.quad	LFB2822-.
	.set L$set$191,LFE2822-LFB2822
	.quad L$set$191
	.uleb128 0x8
	.quad	LLSDA2822-.
	.byte	0x4
	.set L$set$192,LCFI101-LFB2822
	.long L$set$192
	.byte	0xe
	.uleb128 0x40
	.byte	0x9d
	.uleb128 0x8
	.byte	0x9e
	.uleb128 0x7
	.byte	0x4
	.set L$set$193,LCFI102-LCFI101
	.long L$set$193
	.byte	0x93
	.uleb128 0x6
	.byte	0x4
	.set L$set$194,LCFI103-LCFI102
	.long L$set$194
	.byte	0xde
	.byte	0xdd
	.byte	0xd3
	.byte	0xe
	.uleb128 0
	.align	3
LEFDE89:
LSFDE91:
	.set L$set$195,LEFDE91-LASFDE91
	.long L$set$195
LASFDE91:
	.long	LASFDE91-EH_frame1
	.quad	LFB2827-.
	.set L$set$196,LFE2827-LFB2827
	.quad L$set$196
	.uleb128 0x8
	.quad	0
	.byte	0x4
	.set L$set$197,LCFI104-LFB2827
	.long L$set$197
	.byte	0xe
	.uleb128 0x20
	.byte	0x9d
	.uleb128 0x4
	.byte	0x9e
	.uleb128 0x3
	.byte	0x4
	.set L$set$198,LCFI105-LCFI104
	.long L$set$198
	.byte	0xde
	.byte	0xdd
	.byte	0xe
	.uleb128 0
	.align	3
LEFDE91:
LSFDE93:
	.set L$set$199,LEFDE93-LASFDE93
	.long L$set$199
LASFDE93:
	.long	LASFDE93-EH_frame1
	.quad	LFB2828-.
	.set L$set$200,LFE2828-LFB2828
	.quad L$set$200
	.uleb128 0x8
	.quad	LLSDA2828-.
	.byte	0x4
	.set L$set$201,LCFI106-LFB2828
	.long L$set$201
	.byte	0xe
	.uleb128 0x30
	.byte	0x9d
	.uleb128 0x6
	.byte	0x9e
	.uleb128 0x5
	.byte	0x4
	.set L$set$202,LCFI107-LCFI106
	.long L$set$202
	.byte	0x93
	.uleb128 0x4
	.byte	0x4
	.set L$set$203,LCFI108-LCFI107
	.long L$set$203
	.byte	0xde
	.byte	0xdd
	.byte	0xd3
	.byte	0xe
	.uleb128 0
	.align	3
LEFDE93:
LSFDE95:
	.set L$set$204,LEFDE95-LASFDE95
	.long L$set$204
LASFDE95:
	.long	LASFDE95-EH_frame1
	.quad	LFB2831-.
	.set L$set$205,LFE2831-LFB2831
	.quad L$set$205
	.uleb128 0x8
	.quad	0
	.byte	0x4
	.set L$set$206,LCFI109-LFB2831
	.long L$set$206
	.byte	0xe
	.uleb128 0x20
	.byte	0x9d
	.uleb128 0x4
	.byte	0x9e
	.uleb128 0x3
	.byte	0x4
	.set L$set$207,LCFI110-LCFI109
	.long L$set$207
	.byte	0xde
	.byte	0xdd
	.byte	0xe
	.uleb128 0
	.align	3
LEFDE95:
LSFDE97:
	.set L$set$208,LEFDE97-LASFDE97
	.long L$set$208
LASFDE97:
	.long	LASFDE97-EH_frame1
	.quad	LFB2833-.
	.set L$set$209,LFE2833-LFB2833
	.quad L$set$209
	.uleb128 0x8
	.quad	0
	.byte	0x4
	.set L$set$210,LCFI111-LFB2833
	.long L$set$210
	.byte	0xe
	.uleb128 0x30
	.byte	0x9d
	.uleb128 0x6
	.byte	0x9e
	.uleb128 0x5
	.byte	0x4
	.set L$set$211,LCFI112-LCFI111
	.long L$set$211
	.byte	0x93
	.uleb128 0x4
	.byte	0x4
	.set L$set$212,LCFI113-LCFI112
	.long L$set$212
	.byte	0xde
	.byte	0xdd
	.byte	0xd3
	.byte	0xe
	.uleb128 0
	.align	3
LEFDE97:
LSFDE99:
	.set L$set$213,LEFDE99-LASFDE99
	.long L$set$213
LASFDE99:
	.long	LASFDE99-EH_frame1
	.quad	LFB2834-.
	.set L$set$214,LFE2834-LFB2834
	.quad L$set$214
	.uleb128 0x8
	.quad	0
	.byte	0x4
	.set L$set$215,LCFI114-LFB2834
	.long L$set$215
	.byte	0xe
	.uleb128 0x30
	.byte	0x9d
	.uleb128 0x6
	.byte	0x9e
	.uleb128 0x5
	.byte	0x4
	.set L$set$216,LCFI115-LCFI114
	.long L$set$216
	.byte	0x93
	.uleb128 0x4
	.byte	0x4
	.set L$set$217,LCFI116-LCFI115
	.long L$set$217
	.byte	0xde
	.byte	0xdd
	.byte	0xd3
	.byte	0xe
	.uleb128 0
	.align	3
LEFDE99:
LSFDE101:
	.set L$set$218,LEFDE101-LASFDE101
	.long L$set$218
LASFDE101:
	.long	LASFDE101-EH_frame1
	.quad	LFB2835-.
	.set L$set$219,LFE2835-LFB2835
	.quad L$set$219
	.uleb128 0x8
	.quad	0
	.byte	0x4
	.set L$set$220,LCFI117-LFB2835
	.long L$set$220
	.byte	0xe
	.uleb128 0x10
	.byte	0x4
	.set L$set$221,LCFI118-LCFI117
	.long L$set$221
	.byte	0xe
	.uleb128 0
	.align	3
LEFDE101:
LSFDE103:
	.set L$set$222,LEFDE103-LASFDE103
	.long L$set$222
LASFDE103:
	.long	LASFDE103-EH_frame1
	.quad	LFB2836-.
	.set L$set$223,LFE2836-LFB2836
	.quad L$set$223
	.uleb128 0x8
	.quad	0
	.byte	0x4
	.set L$set$224,LCFI119-LFB2836
	.long L$set$224
	.byte	0xe
	.uleb128 0x60
	.byte	0x4
	.set L$set$225,LCFI120-LCFI119
	.long L$set$225
	.byte	0xe
	.uleb128 0
	.align	3
LEFDE103:
LSFDE105:
	.set L$set$226,LEFDE105-LASFDE105
	.long L$set$226
LASFDE105:
	.long	LASFDE105-EH_frame1
	.quad	LFB2837-.
	.set L$set$227,LFE2837-LFB2837
	.quad L$set$227
	.uleb128 0x8
	.quad	0
	.byte	0x4
	.set L$set$228,LCFI121-LFB2837
	.long L$set$228
	.byte	0xe
	.uleb128 0x20
	.byte	0x9d
	.uleb128 0x4
	.byte	0x9e
	.uleb128 0x3
	.byte	0x4
	.set L$set$229,LCFI122-LCFI121
	.long L$set$229
	.byte	0xde
	.byte	0xdd
	.byte	0xe
	.uleb128 0
	.align	3
LEFDE105:
LSFDE107:
	.set L$set$230,LEFDE107-LASFDE107
	.long L$set$230
LASFDE107:
	.long	LASFDE107-EH_frame1
	.quad	LFB2838-.
	.set L$set$231,LFE2838-LFB2838
	.quad L$set$231
	.uleb128 0x8
	.quad	0
	.byte	0x4
	.set L$set$232,LCFI123-LFB2838
	.long L$set$232
	.byte	0xe
	.uleb128 0x20
	.byte	0x9d
	.uleb128 0x4
	.byte	0x9e
	.uleb128 0x3
	.byte	0x4
	.set L$set$233,LCFI124-LCFI123
	.long L$set$233
	.byte	0xde
	.byte	0xdd
	.byte	0xe
	.uleb128 0
	.align	3
LEFDE107:
LSFDE109:
	.set L$set$234,LEFDE109-LASFDE109
	.long L$set$234
LASFDE109:
	.long	LASFDE109-EH_frame1
	.quad	LFB2839-.
	.set L$set$235,LFE2839-LFB2839
	.quad L$set$235
	.uleb128 0x8
	.quad	0
	.byte	0x4
	.set L$set$236,LCFI125-LFB2839
	.long L$set$236
	.byte	0xe
	.uleb128 0x40
	.byte	0x9d
	.uleb128 0x8
	.byte	0x9e
	.uleb128 0x7
	.byte	0x4
	.set L$set$237,LCFI126-LCFI125
	.long L$set$237
	.byte	0xde
	.byte	0xdd
	.byte	0xe
	.uleb128 0
	.align	3
LEFDE109:
LSFDE111:
	.set L$set$238,LEFDE111-LASFDE111
	.long L$set$238
LASFDE111:
	.long	LASFDE111-EH_frame1
	.quad	LFB2840-.
	.set L$set$239,LFE2840-LFB2840
	.quad L$set$239
	.uleb128 0x8
	.quad	0
	.byte	0x4
	.set L$set$240,LCFI127-LFB2840
	.long L$set$240
	.byte	0xe
	.uleb128 0x20
	.byte	0x9d
	.uleb128 0x4
	.byte	0x9e
	.uleb128 0x3
	.byte	0x4
	.set L$set$241,LCFI128-LCFI127
	.long L$set$241
	.byte	0xde
	.byte	0xdd
	.byte	0xe
	.uleb128 0
	.align	3
LEFDE111:
LSFDE113:
	.set L$set$242,LEFDE113-LASFDE113
	.long L$set$242
LASFDE113:
	.long	LASFDE113-EH_frame1
	.quad	LFB2841-.
	.set L$set$243,LFE2841-LFB2841
	.quad L$set$243
	.uleb128 0x8
	.quad	0
	.byte	0x4
	.set L$set$244,LCFI129-LFB2841
	.long L$set$244
	.byte	0xe
	.uleb128 0x30
	.byte	0x9d
	.uleb128 0x6
	.byte	0x9e
	.uleb128 0x5
	.byte	0x4
	.set L$set$245,LCFI130-LCFI129
	.long L$set$245
	.byte	0x93
	.uleb128 0x4
	.byte	0x4
	.set L$set$246,LCFI131-LCFI130
	.long L$set$246
	.byte	0xde
	.byte	0xdd
	.byte	0xd3
	.byte	0xe
	.uleb128 0
	.align	3
LEFDE113:
LSFDE115:
	.set L$set$247,LEFDE115-LASFDE115
	.long L$set$247
LASFDE115:
	.long	LASFDE115-EH_frame1
	.quad	LFB2842-.
	.set L$set$248,LFE2842-LFB2842
	.quad L$set$248
	.uleb128 0x8
	.quad	0
	.byte	0x4
	.set L$set$249,LCFI132-LFB2842
	.long L$set$249
	.byte	0xe
	.uleb128 0x10
	.byte	0x4
	.set L$set$250,LCFI133-LCFI132
	.long L$set$250
	.byte	0xe
	.uleb128 0
	.align	3
LEFDE115:
LSFDE117:
	.set L$set$251,LEFDE117-LASFDE117
	.long L$set$251
LASFDE117:
	.long	LASFDE117-EH_frame1
	.quad	LFB2844-.
	.set L$set$252,LFE2844-LFB2844
	.quad L$set$252
	.uleb128 0x8
	.quad	LLSDA2844-.
	.byte	0x4
	.set L$set$253,LCFI134-LFB2844
	.long L$set$253
	.byte	0xe
	.uleb128 0x40
	.byte	0x9d
	.uleb128 0x8
	.byte	0x9e
	.uleb128 0x7
	.byte	0x4
	.set L$set$254,LCFI135-LCFI134
	.long L$set$254
	.byte	0x93
	.uleb128 0x6
	.byte	0x4
	.set L$set$255,LCFI136-LCFI135
	.long L$set$255
	.byte	0xde
	.byte	0xdd
	.byte	0xd3
	.byte	0xe
	.uleb128 0
	.align	3
LEFDE117:
LSFDE119:
	.set L$set$256,LEFDE119-LASFDE119
	.long L$set$256
LASFDE119:
	.long	LASFDE119-EH_frame1
	.quad	LFB2846-.
	.set L$set$257,LFE2846-LFB2846
	.quad L$set$257
	.uleb128 0x8
	.quad	0
	.byte	0x4
	.set L$set$258,LCFI137-LFB2846
	.long L$set$258
	.byte	0xe
	.uleb128 0x30
	.byte	0x9d
	.uleb128 0x6
	.byte	0x9e
	.uleb128 0x5
	.byte	0x4
	.set L$set$259,LCFI138-LCFI137
	.long L$set$259
	.byte	0xde
	.byte	0xdd
	.byte	0xe
	.uleb128 0
	.align	3
LEFDE119:
LSFDE121:
	.set L$set$260,LEFDE121-LASFDE121
	.long L$set$260
LASFDE121:
	.long	LASFDE121-EH_frame1
	.quad	LFB2847-.
	.set L$set$261,LFE2847-LFB2847
	.quad L$set$261
	.uleb128 0x8
	.quad	0
	.byte	0x4
	.set L$set$262,LCFI139-LFB2847
	.long L$set$262
	.byte	0xe
	.uleb128 0x30
	.byte	0x9d
	.uleb128 0x6
	.byte	0x9e
	.uleb128 0x5
	.byte	0x4
	.set L$set$263,LCFI140-LCFI139
	.long L$set$263
	.byte	0xde
	.byte	0xdd
	.byte	0xe
	.uleb128 0
	.align	3
LEFDE121:
LSFDE123:
	.set L$set$264,LEFDE123-LASFDE123
	.long L$set$264
LASFDE123:
	.long	LASFDE123-EH_frame1
	.quad	LFB2848-.
	.set L$set$265,LFE2848-LFB2848
	.quad L$set$265
	.uleb128 0x8
	.quad	0
	.byte	0x4
	.set L$set$266,LCFI141-LFB2848
	.long L$set$266
	.byte	0xe
	.uleb128 0x30
	.byte	0x9d
	.uleb128 0x6
	.byte	0x9e
	.uleb128 0x5
	.byte	0x4
	.set L$set$267,LCFI142-LCFI141
	.long L$set$267
	.byte	0xde
	.byte	0xdd
	.byte	0xe
	.uleb128 0
	.align	3
LEFDE123:
LSFDE125:
	.set L$set$268,LEFDE125-LASFDE125
	.long L$set$268
LASFDE125:
	.long	LASFDE125-EH_frame1
	.quad	LFB2887-.
	.set L$set$269,LFE2887-LFB2887
	.quad L$set$269
	.uleb128 0x8
	.quad	0
	.byte	0x4
	.set L$set$270,LCFI143-LFB2887
	.long L$set$270
	.byte	0xe
	.uleb128 0x10
	.byte	0x4
	.set L$set$271,LCFI144-LCFI143
	.long L$set$271
	.byte	0xe
	.uleb128 0
	.align	3
LEFDE125:
LSFDE127:
	.set L$set$272,LEFDE127-LASFDE127
	.long L$set$272
LASFDE127:
	.long	LASFDE127-EH_frame1
	.quad	LFB2889-.
	.set L$set$273,LFE2889-LFB2889
	.quad L$set$273
	.uleb128 0x8
	.quad	0
	.byte	0x4
	.set L$set$274,LCFI145-LFB2889
	.long L$set$274
	.byte	0xe
	.uleb128 0x30
	.byte	0x9d
	.uleb128 0x6
	.byte	0x9e
	.uleb128 0x5
	.byte	0x4
	.set L$set$275,LCFI146-LCFI145
	.long L$set$275
	.byte	0xde
	.byte	0xdd
	.byte	0xe
	.uleb128 0
	.align	3
LEFDE127:
LSFDE129:
	.set L$set$276,LEFDE129-LASFDE129
	.long L$set$276
LASFDE129:
	.long	LASFDE129-EH_frame1
	.quad	LFB2890-.
	.set L$set$277,LFE2890-LFB2890
	.quad L$set$277
	.uleb128 0x8
	.quad	0
	.byte	0x4
	.set L$set$278,LCFI147-LFB2890
	.long L$set$278
	.byte	0xe
	.uleb128 0x20
	.byte	0x9d
	.uleb128 0x4
	.byte	0x9e
	.uleb128 0x3
	.byte	0x4
	.set L$set$279,LCFI148-LCFI147
	.long L$set$279
	.byte	0xde
	.byte	0xdd
	.byte	0xe
	.uleb128 0
	.align	3
LEFDE129:
LSFDE131:
	.set L$set$280,LEFDE131-LASFDE131
	.long L$set$280
LASFDE131:
	.long	LASFDE131-EH_frame1
	.quad	LFB2891-.
	.set L$set$281,LFE2891-LFB2891
	.quad L$set$281
	.uleb128 0x8
	.quad	0
	.byte	0x4
	.set L$set$282,LCFI149-LFB2891
	.long L$set$282
	.byte	0xe
	.uleb128 0x20
	.byte	0x9d
	.uleb128 0x4
	.byte	0x9e
	.uleb128 0x3
	.byte	0x4
	.set L$set$283,LCFI150-LCFI149
	.long L$set$283
	.byte	0xde
	.byte	0xdd
	.byte	0xe
	.uleb128 0
	.align	3
LEFDE131:
LSFDE133:
	.set L$set$284,LEFDE133-LASFDE133
	.long L$set$284
LASFDE133:
	.long	LASFDE133-EH_frame1
	.quad	LFB2892-.
	.set L$set$285,LFE2892-LFB2892
	.quad L$set$285
	.uleb128 0x8
	.quad	0
	.byte	0x4
	.set L$set$286,LCFI151-LFB2892
	.long L$set$286
	.byte	0xe
	.uleb128 0x30
	.byte	0x9d
	.uleb128 0x6
	.byte	0x9e
	.uleb128 0x5
	.byte	0x4
	.set L$set$287,LCFI152-LCFI151
	.long L$set$287
	.byte	0xde
	.byte	0xdd
	.byte	0xe
	.uleb128 0
	.align	3
LEFDE133:
LSFDE135:
	.set L$set$288,LEFDE135-LASFDE135
	.long L$set$288
LASFDE135:
	.long	LASFDE135-EH_frame1
	.quad	LFB2893-.
	.set L$set$289,LFE2893-LFB2893
	.quad L$set$289
	.uleb128 0x8
	.quad	0
	.byte	0x4
	.set L$set$290,LCFI153-LFB2893
	.long L$set$290
	.byte	0xe
	.uleb128 0x50
	.byte	0x9d
	.uleb128 0xa
	.byte	0x9e
	.uleb128 0x9
	.byte	0x4
	.set L$set$291,LCFI154-LCFI153
	.long L$set$291
	.byte	0x93
	.uleb128 0x8
	.byte	0x4
	.set L$set$292,LCFI155-LCFI154
	.long L$set$292
	.byte	0xde
	.byte	0xdd
	.byte	0xd3
	.byte	0xe
	.uleb128 0
	.align	3
LEFDE135:
LSFDE137:
	.set L$set$293,LEFDE137-LASFDE137
	.long L$set$293
LASFDE137:
	.long	LASFDE137-EH_frame1
	.quad	LFB2894-.
	.set L$set$294,LFE2894-LFB2894
	.quad L$set$294
	.uleb128 0x8
	.quad	0
	.byte	0x4
	.set L$set$295,LCFI156-LFB2894
	.long L$set$295
	.byte	0xe
	.uleb128 0x20
	.byte	0x9d
	.uleb128 0x4
	.byte	0x9e
	.uleb128 0x3
	.byte	0x4
	.set L$set$296,LCFI157-LCFI156
	.long L$set$296
	.byte	0xde
	.byte	0xdd
	.byte	0xe
	.uleb128 0
	.align	3
LEFDE137:
LSFDE139:
	.set L$set$297,LEFDE139-LASFDE139
	.long L$set$297
LASFDE139:
	.long	LASFDE139-EH_frame1
	.quad	LFB2895-.
	.set L$set$298,LFE2895-LFB2895
	.quad L$set$298
	.uleb128 0x8
	.quad	0
	.byte	0x4
	.set L$set$299,LCFI158-LFB2895
	.long L$set$299
	.byte	0xe
	.uleb128 0x30
	.byte	0x9d
	.uleb128 0x6
	.byte	0x9e
	.uleb128 0x5
	.byte	0x4
	.set L$set$300,LCFI159-LCFI158
	.long L$set$300
	.byte	0xde
	.byte	0xdd
	.byte	0xe
	.uleb128 0
	.align	3
LEFDE139:
LSFDE141:
	.set L$set$301,LEFDE141-LASFDE141
	.long L$set$301
LASFDE141:
	.long	LASFDE141-EH_frame1
	.quad	LFB2896-.
	.set L$set$302,LFE2896-LFB2896
	.quad L$set$302
	.uleb128 0x8
	.quad	0
	.byte	0x4
	.set L$set$303,LCFI160-LFB2896
	.long L$set$303
	.byte	0xe
	.uleb128 0x20
	.byte	0x9d
	.uleb128 0x4
	.byte	0x9e
	.uleb128 0x3
	.byte	0x4
	.set L$set$304,LCFI161-LCFI160
	.long L$set$304
	.byte	0xde
	.byte	0xdd
	.byte	0xe
	.uleb128 0
	.align	3
LEFDE141:
LSFDE143:
	.set L$set$305,LEFDE143-LASFDE143
	.long L$set$305
LASFDE143:
	.long	LASFDE143-EH_frame1
	.quad	LFB2897-.
	.set L$set$306,LFE2897-LFB2897
	.quad L$set$306
	.uleb128 0x8
	.quad	0
	.byte	0x4
	.set L$set$307,LCFI162-LFB2897
	.long L$set$307
	.byte	0xe
	.uleb128 0x10
	.byte	0x4
	.set L$set$308,LCFI163-LCFI162
	.long L$set$308
	.byte	0xe
	.uleb128 0
	.align	3
LEFDE143:
LSFDE145:
	.set L$set$309,LEFDE145-LASFDE145
	.long L$set$309
LASFDE145:
	.long	LASFDE145-EH_frame1
	.quad	LFB2898-.
	.set L$set$310,LFE2898-LFB2898
	.quad L$set$310
	.uleb128 0x8
	.quad	0
	.byte	0x4
	.set L$set$311,LCFI164-LFB2898
	.long L$set$311
	.byte	0xe
	.uleb128 0x30
	.byte	0x9d
	.uleb128 0x6
	.byte	0x9e
	.uleb128 0x5
	.byte	0x4
	.set L$set$312,LCFI165-LCFI164
	.long L$set$312
	.byte	0xde
	.byte	0xdd
	.byte	0xe
	.uleb128 0
	.align	3
LEFDE145:
LSFDE147:
	.set L$set$313,LEFDE147-LASFDE147
	.long L$set$313
LASFDE147:
	.long	LASFDE147-EH_frame1
	.quad	LFB2899-.
	.set L$set$314,LFE2899-LFB2899
	.quad L$set$314
	.uleb128 0x8
	.quad	0
	.byte	0x4
	.set L$set$315,LCFI166-LFB2899
	.long L$set$315
	.byte	0xe
	.uleb128 0x50
	.byte	0x9d
	.uleb128 0xa
	.byte	0x9e
	.uleb128 0x9
	.byte	0x4
	.set L$set$316,LCFI167-LCFI166
	.long L$set$316
	.byte	0x93
	.uleb128 0x8
	.byte	0x4
	.set L$set$317,LCFI168-LCFI167
	.long L$set$317
	.byte	0xde
	.byte	0xdd
	.byte	0xd3
	.byte	0xe
	.uleb128 0
	.align	3
LEFDE147:
LSFDE149:
	.set L$set$318,LEFDE149-LASFDE149
	.long L$set$318
LASFDE149:
	.long	LASFDE149-EH_frame1
	.quad	LFB2900-.
	.set L$set$319,LFE2900-LFB2900
	.quad L$set$319
	.uleb128 0x8
	.quad	0
	.byte	0x4
	.set L$set$320,LCFI169-LFB2900
	.long L$set$320
	.byte	0xe
	.uleb128 0x20
	.byte	0x9d
	.uleb128 0x4
	.byte	0x9e
	.uleb128 0x3
	.byte	0x4
	.set L$set$321,LCFI170-LCFI169
	.long L$set$321
	.byte	0xde
	.byte	0xdd
	.byte	0xe
	.uleb128 0
	.align	3
LEFDE149:
LSFDE151:
	.set L$set$322,LEFDE151-LASFDE151
	.long L$set$322
LASFDE151:
	.long	LASFDE151-EH_frame1
	.quad	LFB2901-.
	.set L$set$323,LFE2901-LFB2901
	.quad L$set$323
	.uleb128 0x8
	.quad	0
	.byte	0x4
	.set L$set$324,LCFI171-LFB2901
	.long L$set$324
	.byte	0xe
	.uleb128 0x30
	.byte	0x9d
	.uleb128 0x6
	.byte	0x9e
	.uleb128 0x5
	.byte	0x4
	.set L$set$325,LCFI172-LCFI171
	.long L$set$325
	.byte	0xde
	.byte	0xdd
	.byte	0xe
	.uleb128 0
	.align	3
LEFDE151:
LSFDE153:
	.set L$set$326,LEFDE153-LASFDE153
	.long L$set$326
LASFDE153:
	.long	LASFDE153-EH_frame1
	.quad	LFB2902-.
	.set L$set$327,LFE2902-LFB2902
	.quad L$set$327
	.uleb128 0x8
	.quad	0
	.byte	0x4
	.set L$set$328,LCFI173-LFB2902
	.long L$set$328
	.byte	0xe
	.uleb128 0x30
	.byte	0x9d
	.uleb128 0x6
	.byte	0x9e
	.uleb128 0x5
	.byte	0x4
	.set L$set$329,LCFI174-LCFI173
	.long L$set$329
	.byte	0xde
	.byte	0xdd
	.byte	0xe
	.uleb128 0
	.align	3
LEFDE153:
LSFDE155:
	.set L$set$330,LEFDE155-LASFDE155
	.long L$set$330
LASFDE155:
	.long	LASFDE155-EH_frame1
	.quad	LFB2903-.
	.set L$set$331,LFE2903-LFB2903
	.quad L$set$331
	.uleb128 0x8
	.quad	0
	.byte	0x4
	.set L$set$332,LCFI175-LFB2903
	.long L$set$332
	.byte	0xe
	.uleb128 0x30
	.byte	0x9d
	.uleb128 0x6
	.byte	0x9e
	.uleb128 0x5
	.byte	0x4
	.set L$set$333,LCFI176-LCFI175
	.long L$set$333
	.byte	0xde
	.byte	0xdd
	.byte	0xe
	.uleb128 0
	.align	3
LEFDE155:
LSFDE157:
	.set L$set$334,LEFDE157-LASFDE157
	.long L$set$334
LASFDE157:
	.long	LASFDE157-EH_frame1
	.quad	LFB2906-.
	.set L$set$335,LFE2906-LFB2906
	.quad L$set$335
	.uleb128 0x8
	.quad	0
	.byte	0x4
	.set L$set$336,LCFI177-LFB2906
	.long L$set$336
	.byte	0xe
	.uleb128 0x20
	.byte	0x9d
	.uleb128 0x4
	.byte	0x9e
	.uleb128 0x3
	.byte	0x4
	.set L$set$337,LCFI178-LCFI177
	.long L$set$337
	.byte	0xde
	.byte	0xdd
	.byte	0xe
	.uleb128 0
	.align	3
LEFDE157:
LSFDE159:
	.set L$set$338,LEFDE159-LASFDE159
	.long L$set$338
LASFDE159:
	.long	LASFDE159-EH_frame1
	.quad	LFB2908-.
	.set L$set$339,LFE2908-LFB2908
	.quad L$set$339
	.uleb128 0x8
	.quad	0
	.byte	0x4
	.set L$set$340,LCFI179-LFB2908
	.long L$set$340
	.byte	0xe
	.uleb128 0x20
	.byte	0x9d
	.uleb128 0x4
	.byte	0x9e
	.uleb128 0x3
	.byte	0x4
	.set L$set$341,LCFI180-LCFI179
	.long L$set$341
	.byte	0xde
	.byte	0xdd
	.byte	0xe
	.uleb128 0
	.align	3
LEFDE159:
LSFDE161:
	.set L$set$342,LEFDE161-LASFDE161
	.long L$set$342
LASFDE161:
	.long	LASFDE161-EH_frame1
	.quad	LFB2909-.
	.set L$set$343,LFE2909-LFB2909
	.quad L$set$343
	.uleb128 0x8
	.quad	0
	.byte	0x4
	.set L$set$344,LCFI181-LFB2909
	.long L$set$344
	.byte	0xe
	.uleb128 0x20
	.byte	0x9d
	.uleb128 0x4
	.byte	0x9e
	.uleb128 0x3
	.byte	0x4
	.set L$set$345,LCFI182-LCFI181
	.long L$set$345
	.byte	0xde
	.byte	0xdd
	.byte	0xe
	.uleb128 0
	.align	3
LEFDE161:
LSFDE163:
	.set L$set$346,LEFDE163-LASFDE163
	.long L$set$346
LASFDE163:
	.long	LASFDE163-EH_frame1
	.quad	LFB2910-.
	.set L$set$347,LFE2910-LFB2910
	.quad L$set$347
	.uleb128 0x8
	.quad	LLSDA2910-.
	.byte	0x4
	.set L$set$348,LCFI183-LFB2910
	.long L$set$348
	.byte	0xe
	.uleb128 0x60
	.byte	0x9d
	.uleb128 0xc
	.byte	0x9e
	.uleb128 0xb
	.byte	0x4
	.set L$set$349,LCFI184-LCFI183
	.long L$set$349
	.byte	0x93
	.uleb128 0xa
	.byte	0x4
	.set L$set$350,LCFI185-LCFI184
	.long L$set$350
	.byte	0xde
	.byte	0xdd
	.byte	0xd3
	.byte	0xe
	.uleb128 0
	.align	3
LEFDE163:
LSFDE165:
	.set L$set$351,LEFDE165-LASFDE165
	.long L$set$351
LASFDE165:
	.long	LASFDE165-EH_frame1
	.quad	LFB2911-.
	.set L$set$352,LFE2911-LFB2911
	.quad L$set$352
	.uleb128 0x8
	.quad	0
	.byte	0x4
	.set L$set$353,LCFI186-LFB2911
	.long L$set$353
	.byte	0xe
	.uleb128 0x40
	.byte	0x9d
	.uleb128 0x8
	.byte	0x9e
	.uleb128 0x7
	.byte	0x4
	.set L$set$354,LCFI187-LCFI186
	.long L$set$354
	.byte	0xde
	.byte	0xdd
	.byte	0xe
	.uleb128 0
	.align	3
LEFDE165:
LSFDE167:
	.set L$set$355,LEFDE167-LASFDE167
	.long L$set$355
LASFDE167:
	.long	LASFDE167-EH_frame1
	.quad	LFB2912-.
	.set L$set$356,LFE2912-LFB2912
	.quad L$set$356
	.uleb128 0x8
	.quad	LLSDA2912-.
	.byte	0x4
	.set L$set$357,LCFI188-LFB2912
	.long L$set$357
	.byte	0xe
	.uleb128 0x40
	.byte	0x9d
	.uleb128 0x8
	.byte	0x9e
	.uleb128 0x7
	.byte	0x4
	.set L$set$358,LCFI189-LCFI188
	.long L$set$358
	.byte	0xde
	.byte	0xdd
	.byte	0xe
	.uleb128 0
	.align	3
LEFDE167:
LSFDE169:
	.set L$set$359,LEFDE169-LASFDE169
	.long L$set$359
LASFDE169:
	.long	LASFDE169-EH_frame1
	.quad	LFB2915-.
	.set L$set$360,LFE2915-LFB2915
	.quad L$set$360
	.uleb128 0x8
	.quad	0
	.byte	0x4
	.set L$set$361,LCFI190-LFB2915
	.long L$set$361
	.byte	0xe
	.uleb128 0x10
	.byte	0x4
	.set L$set$362,LCFI191-LCFI190
	.long L$set$362
	.byte	0xe
	.uleb128 0
	.align	3
LEFDE169:
LSFDE171:
	.set L$set$363,LEFDE171-LASFDE171
	.long L$set$363
LASFDE171:
	.long	LASFDE171-EH_frame1
	.quad	LFB2917-.
	.set L$set$364,LFE2917-LFB2917
	.quad L$set$364
	.uleb128 0x8
	.quad	0
	.byte	0x4
	.set L$set$365,LCFI192-LFB2917
	.long L$set$365
	.byte	0xe
	.uleb128 0x30
	.byte	0x9d
	.uleb128 0x6
	.byte	0x9e
	.uleb128 0x5
	.byte	0x4
	.set L$set$366,LCFI193-LCFI192
	.long L$set$366
	.byte	0xde
	.byte	0xdd
	.byte	0xe
	.uleb128 0
	.align	3
LEFDE171:
LSFDE173:
	.set L$set$367,LEFDE173-LASFDE173
	.long L$set$367
LASFDE173:
	.long	LASFDE173-EH_frame1
	.quad	LFB2918-.
	.set L$set$368,LFE2918-LFB2918
	.quad L$set$368
	.uleb128 0x8
	.quad	0
	.byte	0x4
	.set L$set$369,LCFI194-LFB2918
	.long L$set$369
	.byte	0xe
	.uleb128 0x30
	.byte	0x9d
	.uleb128 0x6
	.byte	0x9e
	.uleb128 0x5
	.byte	0x4
	.set L$set$370,LCFI195-LCFI194
	.long L$set$370
	.byte	0x93
	.uleb128 0x4
	.byte	0x94
	.uleb128 0x3
	.byte	0x4
	.set L$set$371,LCFI196-LCFI195
	.long L$set$371
	.byte	0xde
	.byte	0xdd
	.byte	0xd3
	.byte	0xd4
	.byte	0xe
	.uleb128 0
	.align	3
LEFDE173:
LSFDE175:
	.set L$set$372,LEFDE175-LASFDE175
	.long L$set$372
LASFDE175:
	.long	LASFDE175-EH_frame1
	.quad	LFB2919-.
	.set L$set$373,LFE2919-LFB2919
	.quad L$set$373
	.uleb128 0x8
	.quad	0
	.byte	0x4
	.set L$set$374,LCFI197-LFB2919
	.long L$set$374
	.byte	0xe
	.uleb128 0x10
	.byte	0x4
	.set L$set$375,LCFI198-LCFI197
	.long L$set$375
	.byte	0xe
	.uleb128 0
	.align	3
LEFDE175:
LSFDE177:
	.set L$set$376,LEFDE177-LASFDE177
	.long L$set$376
LASFDE177:
	.long	LASFDE177-EH_frame1
	.quad	LFB2920-.
	.set L$set$377,LFE2920-LFB2920
	.quad L$set$377
	.uleb128 0x8
	.quad	0
	.byte	0x4
	.set L$set$378,LCFI199-LFB2920
	.long L$set$378
	.byte	0xe
	.uleb128 0x10
	.byte	0x4
	.set L$set$379,LCFI200-LCFI199
	.long L$set$379
	.byte	0xe
	.uleb128 0
	.align	3
LEFDE177:
LSFDE179:
	.set L$set$380,LEFDE179-LASFDE179
	.long L$set$380
LASFDE179:
	.long	LASFDE179-EH_frame1
	.quad	LFB2921-.
	.set L$set$381,LFE2921-LFB2921
	.quad L$set$381
	.uleb128 0x8
	.quad	0
	.byte	0x4
	.set L$set$382,LCFI201-LFB2921
	.long L$set$382
	.byte	0xe
	.uleb128 0x20
	.byte	0x9d
	.uleb128 0x4
	.byte	0x9e
	.uleb128 0x3
	.byte	0x4
	.set L$set$383,LCFI202-LCFI201
	.long L$set$383
	.byte	0xde
	.byte	0xdd
	.byte	0xe
	.uleb128 0
	.align	3
LEFDE179:
LSFDE181:
	.set L$set$384,LEFDE181-LASFDE181
	.long L$set$384
LASFDE181:
	.long	LASFDE181-EH_frame1
	.quad	LFB2922-.
	.set L$set$385,LFE2922-LFB2922
	.quad L$set$385
	.uleb128 0x8
	.quad	0
	.byte	0x4
	.set L$set$386,LCFI203-LFB2922
	.long L$set$386
	.byte	0xe
	.uleb128 0x20
	.byte	0x9d
	.uleb128 0x4
	.byte	0x9e
	.uleb128 0x3
	.byte	0x4
	.set L$set$387,LCFI204-LCFI203
	.long L$set$387
	.byte	0xde
	.byte	0xdd
	.byte	0xe
	.uleb128 0
	.align	3
LEFDE181:
LSFDE183:
	.set L$set$388,LEFDE183-LASFDE183
	.long L$set$388
LASFDE183:
	.long	LASFDE183-EH_frame1
	.quad	LFB2923-.
	.set L$set$389,LFE2923-LFB2923
	.quad L$set$389
	.uleb128 0x8
	.quad	0
	.byte	0x4
	.set L$set$390,LCFI205-LFB2923
	.long L$set$390
	.byte	0xe
	.uleb128 0x30
	.byte	0x9d
	.uleb128 0x6
	.byte	0x9e
	.uleb128 0x5
	.byte	0x4
	.set L$set$391,LCFI206-LCFI205
	.long L$set$391
	.byte	0x93
	.uleb128 0x4
	.byte	0x4
	.set L$set$392,LCFI207-LCFI206
	.long L$set$392
	.byte	0xde
	.byte	0xdd
	.byte	0xd3
	.byte	0xe
	.uleb128 0
	.align	3
LEFDE183:
LSFDE185:
	.set L$set$393,LEFDE185-LASFDE185
	.long L$set$393
LASFDE185:
	.long	LASFDE185-EH_frame1
	.quad	LFB2926-.
	.set L$set$394,LFE2926-LFB2926
	.quad L$set$394
	.uleb128 0x8
	.quad	0
	.byte	0x4
	.set L$set$395,LCFI208-LFB2926
	.long L$set$395
	.byte	0xe
	.uleb128 0x20
	.byte	0x9d
	.uleb128 0x4
	.byte	0x9e
	.uleb128 0x3
	.byte	0x4
	.set L$set$396,LCFI209-LCFI208
	.long L$set$396
	.byte	0xde
	.byte	0xdd
	.byte	0xe
	.uleb128 0
	.align	3
LEFDE185:
LSFDE187:
	.set L$set$397,LEFDE187-LASFDE187
	.long L$set$397
LASFDE187:
	.long	LASFDE187-EH_frame1
	.quad	LFB2927-.
	.set L$set$398,LFE2927-LFB2927
	.quad L$set$398
	.uleb128 0x8
	.quad	0
	.byte	0x4
	.set L$set$399,LCFI210-LFB2927
	.long L$set$399
	.byte	0xe
	.uleb128 0x20
	.byte	0x9d
	.uleb128 0x4
	.byte	0x9e
	.uleb128 0x3
	.byte	0x4
	.set L$set$400,LCFI211-LCFI210
	.long L$set$400
	.byte	0xde
	.byte	0xdd
	.byte	0xe
	.uleb128 0
	.align	3
LEFDE187:
LSFDE189:
	.set L$set$401,LEFDE189-LASFDE189
	.long L$set$401
LASFDE189:
	.long	LASFDE189-EH_frame1
	.quad	LFB2930-.
	.set L$set$402,LFE2930-LFB2930
	.quad L$set$402
	.uleb128 0x8
	.quad	0
	.byte	0x4
	.set L$set$403,LCFI212-LFB2930
	.long L$set$403
	.byte	0xe
	.uleb128 0x10
	.byte	0x4
	.set L$set$404,LCFI213-LCFI212
	.long L$set$404
	.byte	0xe
	.uleb128 0
	.align	3
LEFDE189:
LSFDE191:
	.set L$set$405,LEFDE191-LASFDE191
	.long L$set$405
LASFDE191:
	.long	LASFDE191-EH_frame1
	.quad	LFB2931-.
	.set L$set$406,LFE2931-LFB2931
	.quad L$set$406
	.uleb128 0x8
	.quad	0
	.byte	0x4
	.set L$set$407,LCFI214-LFB2931
	.long L$set$407
	.byte	0xe
	.uleb128 0x40
	.byte	0x9d
	.uleb128 0x8
	.byte	0x9e
	.uleb128 0x7
	.byte	0x4
	.set L$set$408,LCFI215-LCFI214
	.long L$set$408
	.byte	0xde
	.byte	0xdd
	.byte	0xe
	.uleb128 0
	.align	3
LEFDE191:
LSFDE193:
	.set L$set$409,LEFDE193-LASFDE193
	.long L$set$409
LASFDE193:
	.long	LASFDE193-EH_frame1
	.quad	LFB2976-.
	.set L$set$410,LFE2976-LFB2976
	.quad L$set$410
	.uleb128 0x8
	.quad	0
	.byte	0x4
	.set L$set$411,LCFI216-LFB2976
	.long L$set$411
	.byte	0xe
	.uleb128 0x30
	.byte	0x9d
	.uleb128 0x6
	.byte	0x9e
	.uleb128 0x5
	.byte	0x4
	.set L$set$412,LCFI217-LCFI216
	.long L$set$412
	.byte	0xde
	.byte	0xdd
	.byte	0xe
	.uleb128 0
	.align	3
LEFDE193:
LSFDE195:
	.set L$set$413,LEFDE195-LASFDE195
	.long L$set$413
LASFDE195:
	.long	LASFDE195-EH_frame1
	.quad	LFB2977-.
	.set L$set$414,LFE2977-LFB2977
	.quad L$set$414
	.uleb128 0x8
	.quad	0
	.byte	0x4
	.set L$set$415,LCFI218-LFB2977
	.long L$set$415
	.byte	0xe
	.uleb128 0x20
	.byte	0x9d
	.uleb128 0x4
	.byte	0x9e
	.uleb128 0x3
	.byte	0x4
	.set L$set$416,LCFI219-LCFI218
	.long L$set$416
	.byte	0xde
	.byte	0xdd
	.byte	0xe
	.uleb128 0
	.align	3
LEFDE195:
LSFDE197:
	.set L$set$417,LEFDE197-LASFDE197
	.long L$set$417
LASFDE197:
	.long	LASFDE197-EH_frame1
	.quad	LFB2978-.
	.set L$set$418,LFE2978-LFB2978
	.quad L$set$418
	.uleb128 0x8
	.quad	0
	.byte	0x4
	.set L$set$419,LCFI220-LFB2978
	.long L$set$419
	.byte	0xe
	.uleb128 0x30
	.byte	0x9d
	.uleb128 0x6
	.byte	0x9e
	.uleb128 0x5
	.byte	0x4
	.set L$set$420,LCFI221-LCFI220
	.long L$set$420
	.byte	0xde
	.byte	0xdd
	.byte	0xe
	.uleb128 0
	.align	3
LEFDE197:
LSFDE199:
	.set L$set$421,LEFDE199-LASFDE199
	.long L$set$421
LASFDE199:
	.long	LASFDE199-EH_frame1
	.quad	LFB2979-.
	.set L$set$422,LFE2979-LFB2979
	.quad L$set$422
	.uleb128 0x8
	.quad	0
	.byte	0x4
	.set L$set$423,LCFI222-LFB2979
	.long L$set$423
	.byte	0xe
	.uleb128 0x30
	.byte	0x9d
	.uleb128 0x6
	.byte	0x9e
	.uleb128 0x5
	.byte	0x4
	.set L$set$424,LCFI223-LCFI222
	.long L$set$424
	.byte	0xde
	.byte	0xdd
	.byte	0xe
	.uleb128 0
	.align	3
LEFDE199:
LSFDE201:
	.set L$set$425,LEFDE201-LASFDE201
	.long L$set$425
LASFDE201:
	.long	LASFDE201-EH_frame1
	.quad	LFB2980-.
	.set L$set$426,LFE2980-LFB2980
	.quad L$set$426
	.uleb128 0x8
	.quad	0
	.byte	0x4
	.set L$set$427,LCFI224-LFB2980
	.long L$set$427
	.byte	0xe
	.uleb128 0x10
	.byte	0x4
	.set L$set$428,LCFI225-LCFI224
	.long L$set$428
	.byte	0xe
	.uleb128 0
	.align	3
LEFDE201:
LSFDE203:
	.set L$set$429,LEFDE203-LASFDE203
	.long L$set$429
LASFDE203:
	.long	LASFDE203-EH_frame1
	.quad	LFB2981-.
	.set L$set$430,LFE2981-LFB2981
	.quad L$set$430
	.uleb128 0x8
	.quad	0
	.byte	0x4
	.set L$set$431,LCFI226-LFB2981
	.long L$set$431
	.byte	0xe
	.uleb128 0x20
	.byte	0x9d
	.uleb128 0x4
	.byte	0x9e
	.uleb128 0x3
	.byte	0x4
	.set L$set$432,LCFI227-LCFI226
	.long L$set$432
	.byte	0xde
	.byte	0xdd
	.byte	0xe
	.uleb128 0
	.align	3
LEFDE203:
LSFDE205:
	.set L$set$433,LEFDE205-LASFDE205
	.long L$set$433
LASFDE205:
	.long	LASFDE205-EH_frame1
	.quad	LFB2982-.
	.set L$set$434,LFE2982-LFB2982
	.quad L$set$434
	.uleb128 0x8
	.quad	0
	.byte	0x4
	.set L$set$435,LCFI228-LFB2982
	.long L$set$435
	.byte	0xe
	.uleb128 0x40
	.byte	0x9d
	.uleb128 0x8
	.byte	0x9e
	.uleb128 0x7
	.byte	0x4
	.set L$set$436,LCFI229-LCFI228
	.long L$set$436
	.byte	0xde
	.byte	0xdd
	.byte	0xe
	.uleb128 0
	.align	3
LEFDE205:
LSFDE207:
	.set L$set$437,LEFDE207-LASFDE207
	.long L$set$437
LASFDE207:
	.long	LASFDE207-EH_frame1
	.quad	LFB2983-.
	.set L$set$438,LFE2983-LFB2983
	.quad L$set$438
	.uleb128 0x8
	.quad	0
	.byte	0x4
	.set L$set$439,LCFI230-LFB2983
	.long L$set$439
	.byte	0xe
	.uleb128 0x30
	.byte	0x9d
	.uleb128 0x6
	.byte	0x9e
	.uleb128 0x5
	.byte	0x4
	.set L$set$440,LCFI231-LCFI230
	.long L$set$440
	.byte	0xde
	.byte	0xdd
	.byte	0xe
	.uleb128 0
	.align	3
LEFDE207:
LSFDE209:
	.set L$set$441,LEFDE209-LASFDE209
	.long L$set$441
LASFDE209:
	.long	LASFDE209-EH_frame1
	.quad	LFB2984-.
	.set L$set$442,LFE2984-LFB2984
	.quad L$set$442
	.uleb128 0x8
	.quad	0
	.byte	0x4
	.set L$set$443,LCFI232-LFB2984
	.long L$set$443
	.byte	0xe
	.uleb128 0x10
	.byte	0x4
	.set L$set$444,LCFI233-LCFI232
	.long L$set$444
	.byte	0xe
	.uleb128 0
	.align	3
LEFDE209:
LSFDE211:
	.set L$set$445,LEFDE211-LASFDE211
	.long L$set$445
LASFDE211:
	.long	LASFDE211-EH_frame1
	.quad	LFB2985-.
	.set L$set$446,LFE2985-LFB2985
	.quad L$set$446
	.uleb128 0x8
	.quad	0
	.byte	0x4
	.set L$set$447,LCFI234-LFB2985
	.long L$set$447
	.byte	0xe
	.uleb128 0x30
	.byte	0x9d
	.uleb128 0x6
	.byte	0x9e
	.uleb128 0x5
	.byte	0x4
	.set L$set$448,LCFI235-LCFI234
	.long L$set$448
	.byte	0xde
	.byte	0xdd
	.byte	0xe
	.uleb128 0
	.align	3
LEFDE211:
LSFDE213:
	.set L$set$449,LEFDE213-LASFDE213
	.long L$set$449
LASFDE213:
	.long	LASFDE213-EH_frame1
	.quad	LFB2986-.
	.set L$set$450,LFE2986-LFB2986
	.quad L$set$450
	.uleb128 0x8
	.quad	0
	.byte	0x4
	.set L$set$451,LCFI236-LFB2986
	.long L$set$451
	.byte	0xe
	.uleb128 0x20
	.byte	0x9d
	.uleb128 0x4
	.byte	0x9e
	.uleb128 0x3
	.byte	0x4
	.set L$set$452,LCFI237-LCFI236
	.long L$set$452
	.byte	0xde
	.byte	0xdd
	.byte	0xe
	.uleb128 0
	.align	3
LEFDE213:
LSFDE215:
	.set L$set$453,LEFDE215-LASFDE215
	.long L$set$453
LASFDE215:
	.long	LASFDE215-EH_frame1
	.quad	LFB2987-.
	.set L$set$454,LFE2987-LFB2987
	.quad L$set$454
	.uleb128 0x8
	.quad	0
	.byte	0x4
	.set L$set$455,LCFI238-LFB2987
	.long L$set$455
	.byte	0xe
	.uleb128 0x30
	.byte	0x9d
	.uleb128 0x6
	.byte	0x9e
	.uleb128 0x5
	.byte	0x4
	.set L$set$456,LCFI239-LCFI238
	.long L$set$456
	.byte	0xde
	.byte	0xdd
	.byte	0xe
	.uleb128 0
	.align	3
LEFDE215:
LSFDE217:
	.set L$set$457,LEFDE217-LASFDE217
	.long L$set$457
LASFDE217:
	.long	LASFDE217-EH_frame1
	.quad	LFB2988-.
	.set L$set$458,LFE2988-LFB2988
	.quad L$set$458
	.uleb128 0x8
	.quad	0
	.byte	0x4
	.set L$set$459,LCFI240-LFB2988
	.long L$set$459
	.byte	0xe
	.uleb128 0x40
	.byte	0x9d
	.uleb128 0x8
	.byte	0x9e
	.uleb128 0x7
	.byte	0x4
	.set L$set$460,LCFI241-LCFI240
	.long L$set$460
	.byte	0xde
	.byte	0xdd
	.byte	0xe
	.uleb128 0
	.align	3
LEFDE217:
LSFDE219:
	.set L$set$461,LEFDE219-LASFDE219
	.long L$set$461
LASFDE219:
	.long	LASFDE219-EH_frame1
	.quad	LFB2989-.
	.set L$set$462,LFE2989-LFB2989
	.quad L$set$462
	.uleb128 0x8
	.quad	0
	.byte	0x4
	.set L$set$463,LCFI242-LFB2989
	.long L$set$463
	.byte	0xe
	.uleb128 0x20
	.byte	0x9d
	.uleb128 0x4
	.byte	0x9e
	.uleb128 0x3
	.byte	0x4
	.set L$set$464,LCFI243-LCFI242
	.long L$set$464
	.byte	0xde
	.byte	0xdd
	.byte	0xe
	.uleb128 0
	.align	3
LEFDE219:
LSFDE221:
	.set L$set$465,LEFDE221-LASFDE221
	.long L$set$465
LASFDE221:
	.long	LASFDE221-EH_frame1
	.quad	LFB2991-.
	.set L$set$466,LFE2991-LFB2991
	.quad L$set$466
	.uleb128 0x8
	.quad	0
	.byte	0x4
	.set L$set$467,LCFI244-LFB2991
	.long L$set$467
	.byte	0xe
	.uleb128 0x20
	.byte	0x9d
	.uleb128 0x4
	.byte	0x9e
	.uleb128 0x3
	.byte	0x4
	.set L$set$468,LCFI245-LCFI244
	.long L$set$468
	.byte	0xde
	.byte	0xdd
	.byte	0xe
	.uleb128 0
	.align	3
LEFDE221:
LSFDE223:
	.set L$set$469,LEFDE223-LASFDE223
	.long L$set$469
LASFDE223:
	.long	LASFDE223-EH_frame1
	.quad	LFB2994-.
	.set L$set$470,LFE2994-LFB2994
	.quad L$set$470
	.uleb128 0x8
	.quad	0
	.byte	0x4
	.set L$set$471,LCFI246-LFB2994
	.long L$set$471
	.byte	0xe
	.uleb128 0x20
	.byte	0x9d
	.uleb128 0x4
	.byte	0x9e
	.uleb128 0x3
	.byte	0x4
	.set L$set$472,LCFI247-LCFI246
	.long L$set$472
	.byte	0xde
	.byte	0xdd
	.byte	0xe
	.uleb128 0
	.align	3
LEFDE223:
LSFDE225:
	.set L$set$473,LEFDE225-LASFDE225
	.long L$set$473
LASFDE225:
	.long	LASFDE225-EH_frame1
	.quad	LFB2997-.
	.set L$set$474,LFE2997-LFB2997
	.quad L$set$474
	.uleb128 0x8
	.quad	0
	.byte	0x4
	.set L$set$475,LCFI248-LFB2997
	.long L$set$475
	.byte	0xe
	.uleb128 0x10
	.byte	0x4
	.set L$set$476,LCFI249-LCFI248
	.long L$set$476
	.byte	0xe
	.uleb128 0
	.align	3
LEFDE225:
LSFDE227:
	.set L$set$477,LEFDE227-LASFDE227
	.long L$set$477
LASFDE227:
	.long	LASFDE227-EH_frame1
	.quad	LFB2999-.
	.set L$set$478,LFE2999-LFB2999
	.quad L$set$478
	.uleb128 0x8
	.quad	LLSDA2999-.
	.byte	0x4
	.set L$set$479,LCFI250-LFB2999
	.long L$set$479
	.byte	0xe
	.uleb128 0x40
	.byte	0x9d
	.uleb128 0x8
	.byte	0x9e
	.uleb128 0x7
	.byte	0x4
	.set L$set$480,LCFI251-LCFI250
	.long L$set$480
	.byte	0x93
	.uleb128 0x6
	.byte	0x4
	.set L$set$481,LCFI252-LCFI251
	.long L$set$481
	.byte	0xde
	.byte	0xdd
	.byte	0xd3
	.byte	0xe
	.uleb128 0
	.align	3
LEFDE227:
LSFDE229:
	.set L$set$482,LEFDE229-LASFDE229
	.long L$set$482
LASFDE229:
	.long	LASFDE229-EH_frame1
	.quad	LFB3000-.
	.set L$set$483,LFE3000-LFB3000
	.quad L$set$483
	.uleb128 0x8
	.quad	LLSDA3000-.
	.byte	0x4
	.set L$set$484,LCFI253-LFB3000
	.long L$set$484
	.byte	0xe
	.uleb128 0x50
	.byte	0x9d
	.uleb128 0xa
	.byte	0x9e
	.uleb128 0x9
	.byte	0x4
	.set L$set$485,LCFI254-LCFI253
	.long L$set$485
	.byte	0x93
	.uleb128 0x8
	.byte	0x4
	.set L$set$486,LCFI255-LCFI254
	.long L$set$486
	.byte	0xde
	.byte	0xdd
	.byte	0xd3
	.byte	0xe
	.uleb128 0
	.align	3
LEFDE229:
LSFDE231:
	.set L$set$487,LEFDE231-LASFDE231
	.long L$set$487
LASFDE231:
	.long	LASFDE231-EH_frame1
	.quad	LFB3001-.
	.set L$set$488,LFE3001-LFB3001
	.quad L$set$488
	.uleb128 0x8
	.quad	0
	.byte	0x4
	.set L$set$489,LCFI256-LFB3001
	.long L$set$489
	.byte	0xe
	.uleb128 0x30
	.byte	0x9d
	.uleb128 0x6
	.byte	0x9e
	.uleb128 0x5
	.byte	0x4
	.set L$set$490,LCFI257-LCFI256
	.long L$set$490
	.byte	0x93
	.uleb128 0x4
	.byte	0x4
	.set L$set$491,LCFI258-LCFI257
	.long L$set$491
	.byte	0xde
	.byte	0xdd
	.byte	0xd3
	.byte	0xe
	.uleb128 0
	.align	3
LEFDE231:
LSFDE233:
	.set L$set$492,LEFDE233-LASFDE233
	.long L$set$492
LASFDE233:
	.long	LASFDE233-EH_frame1
	.quad	LFB3002-.
	.set L$set$493,LFE3002-LFB3002
	.quad L$set$493
	.uleb128 0x8
	.quad	0
	.byte	0x4
	.set L$set$494,LCFI259-LFB3002
	.long L$set$494
	.byte	0xe
	.uleb128 0x30
	.byte	0x9d
	.uleb128 0x6
	.byte	0x9e
	.uleb128 0x5
	.byte	0x4
	.set L$set$495,LCFI260-LCFI259
	.long L$set$495
	.byte	0x93
	.uleb128 0x4
	.byte	0x4
	.set L$set$496,LCFI261-LCFI260
	.long L$set$496
	.byte	0xde
	.byte	0xdd
	.byte	0xd3
	.byte	0xe
	.uleb128 0
	.align	3
LEFDE233:
LSFDE235:
	.set L$set$497,LEFDE235-LASFDE235
	.long L$set$497
LASFDE235:
	.long	LASFDE235-EH_frame1
	.quad	LFB3003-.
	.set L$set$498,LFE3003-LFB3003
	.quad L$set$498
	.uleb128 0x8
	.quad	0
	.byte	0x4
	.set L$set$499,LCFI262-LFB3003
	.long L$set$499
	.byte	0xe
	.uleb128 0x30
	.byte	0x9d
	.uleb128 0x6
	.byte	0x9e
	.uleb128 0x5
	.byte	0x4
	.set L$set$500,LCFI263-LCFI262
	.long L$set$500
	.byte	0x93
	.uleb128 0x4
	.byte	0x4
	.set L$set$501,LCFI264-LCFI263
	.long L$set$501
	.byte	0xde
	.byte	0xdd
	.byte	0xd3
	.byte	0xe
	.uleb128 0
	.align	3
LEFDE235:
LSFDE237:
	.set L$set$502,LEFDE237-LASFDE237
	.long L$set$502
LASFDE237:
	.long	LASFDE237-EH_frame1
	.quad	LFB3006-.
	.set L$set$503,LFE3006-LFB3006
	.quad L$set$503
	.uleb128 0x8
	.quad	0
	.byte	0x4
	.set L$set$504,LCFI265-LFB3006
	.long L$set$504
	.byte	0xe
	.uleb128 0x20
	.byte	0x9d
	.uleb128 0x4
	.byte	0x9e
	.uleb128 0x3
	.byte	0x4
	.set L$set$505,LCFI266-LCFI265
	.long L$set$505
	.byte	0xde
	.byte	0xdd
	.byte	0xe
	.uleb128 0
	.align	3
LEFDE237:
LSFDE239:
	.set L$set$506,LEFDE239-LASFDE239
	.long L$set$506
LASFDE239:
	.long	LASFDE239-EH_frame1
	.quad	LFB3007-.
	.set L$set$507,LFE3007-LFB3007
	.quad L$set$507
	.uleb128 0x8
	.quad	0
	.byte	0x4
	.set L$set$508,LCFI267-LFB3007
	.long L$set$508
	.byte	0xe
	.uleb128 0x30
	.byte	0x9d
	.uleb128 0x6
	.byte	0x9e
	.uleb128 0x5
	.byte	0x4
	.set L$set$509,LCFI268-LCFI267
	.long L$set$509
	.byte	0xde
	.byte	0xdd
	.byte	0xe
	.uleb128 0
	.align	3
LEFDE239:
LSFDE241:
	.set L$set$510,LEFDE241-LASFDE241
	.long L$set$510
LASFDE241:
	.long	LASFDE241-EH_frame1
	.quad	LFB3009-.
	.set L$set$511,LFE3009-LFB3009
	.quad L$set$511
	.uleb128 0x8
	.quad	0
	.byte	0x4
	.set L$set$512,LCFI269-LFB3009
	.long L$set$512
	.byte	0xe
	.uleb128 0x10
	.byte	0x4
	.set L$set$513,LCFI270-LCFI269
	.long L$set$513
	.byte	0xe
	.uleb128 0
	.align	3
LEFDE241:
LSFDE243:
	.set L$set$514,LEFDE243-LASFDE243
	.long L$set$514
LASFDE243:
	.long	LASFDE243-EH_frame1
	.quad	LFB3010-.
	.set L$set$515,LFE3010-LFB3010
	.quad L$set$515
	.uleb128 0x8
	.quad	0
	.byte	0x4
	.set L$set$516,LCFI271-LFB3010
	.long L$set$516
	.byte	0xe
	.uleb128 0x40
	.byte	0x9d
	.uleb128 0x8
	.byte	0x9e
	.uleb128 0x7
	.byte	0x4
	.set L$set$517,LCFI272-LCFI271
	.long L$set$517
	.byte	0x93
	.uleb128 0x6
	.byte	0x4
	.set L$set$518,LCFI273-LCFI272
	.long L$set$518
	.byte	0xde
	.byte	0xdd
	.byte	0xd3
	.byte	0xe
	.uleb128 0
	.align	3
LEFDE243:
LSFDE245:
	.set L$set$519,LEFDE245-LASFDE245
	.long L$set$519
LASFDE245:
	.long	LASFDE245-EH_frame1
	.quad	LFB3011-.
	.set L$set$520,LFE3011-LFB3011
	.quad L$set$520
	.uleb128 0x8
	.quad	0
	.byte	0x4
	.set L$set$521,LCFI274-LFB3011
	.long L$set$521
	.byte	0xe
	.uleb128 0x20
	.byte	0x9d
	.uleb128 0x4
	.byte	0x9e
	.uleb128 0x3
	.byte	0x4
	.set L$set$522,LCFI275-LCFI274
	.long L$set$522
	.byte	0xde
	.byte	0xdd
	.byte	0xe
	.uleb128 0
	.align	3
LEFDE245:
LSFDE247:
	.set L$set$523,LEFDE247-LASFDE247
	.long L$set$523
LASFDE247:
	.long	LASFDE247-EH_frame1
	.quad	LFB3012-.
	.set L$set$524,LFE3012-LFB3012
	.quad L$set$524
	.uleb128 0x8
	.quad	0
	.byte	0x4
	.set L$set$525,LCFI276-LFB3012
	.long L$set$525
	.byte	0xe
	.uleb128 0x20
	.byte	0x9d
	.uleb128 0x4
	.byte	0x9e
	.uleb128 0x3
	.byte	0x4
	.set L$set$526,LCFI277-LCFI276
	.long L$set$526
	.byte	0xde
	.byte	0xdd
	.byte	0xe
	.uleb128 0
	.align	3
LEFDE247:
LSFDE249:
	.set L$set$527,LEFDE249-LASFDE249
	.long L$set$527
LASFDE249:
	.long	LASFDE249-EH_frame1
	.quad	LFB3013-.
	.set L$set$528,LFE3013-LFB3013
	.quad L$set$528
	.uleb128 0x8
	.quad	0
	.byte	0x4
	.set L$set$529,LCFI278-LFB3013
	.long L$set$529
	.byte	0xe
	.uleb128 0x20
	.byte	0x9d
	.uleb128 0x4
	.byte	0x9e
	.uleb128 0x3
	.byte	0x4
	.set L$set$530,LCFI279-LCFI278
	.long L$set$530
	.byte	0xde
	.byte	0xdd
	.byte	0xe
	.uleb128 0
	.align	3
LEFDE249:
LSFDE251:
	.set L$set$531,LEFDE251-LASFDE251
	.long L$set$531
LASFDE251:
	.long	LASFDE251-EH_frame1
	.quad	LFB3014-.
	.set L$set$532,LFE3014-LFB3014
	.quad L$set$532
	.uleb128 0x8
	.quad	0
	.byte	0x4
	.set L$set$533,LCFI280-LFB3014
	.long L$set$533
	.byte	0xe
	.uleb128 0x30
	.byte	0x9d
	.uleb128 0x6
	.byte	0x9e
	.uleb128 0x5
	.byte	0x4
	.set L$set$534,LCFI281-LCFI280
	.long L$set$534
	.byte	0x93
	.uleb128 0x4
	.byte	0x4
	.set L$set$535,LCFI282-LCFI281
	.long L$set$535
	.byte	0xde
	.byte	0xdd
	.byte	0xd3
	.byte	0xe
	.uleb128 0
	.align	3
LEFDE251:
LSFDE253:
	.set L$set$536,LEFDE253-LASFDE253
	.long L$set$536
LASFDE253:
	.long	LASFDE253-EH_frame1
	.quad	LFB3015-.
	.set L$set$537,LFE3015-LFB3015
	.quad L$set$537
	.uleb128 0x8
	.quad	0
	.byte	0x4
	.set L$set$538,LCFI283-LFB3015
	.long L$set$538
	.byte	0xe
	.uleb128 0x10
	.byte	0x4
	.set L$set$539,LCFI284-LCFI283
	.long L$set$539
	.byte	0xe
	.uleb128 0
	.align	3
LEFDE253:
LSFDE255:
	.set L$set$540,LEFDE255-LASFDE255
	.long L$set$540
LASFDE255:
	.long	LASFDE255-EH_frame1
	.quad	LFB3017-.
	.set L$set$541,LFE3017-LFB3017
	.quad L$set$541
	.uleb128 0x8
	.quad	0
	.byte	0x4
	.set L$set$542,LCFI285-LFB3017
	.long L$set$542
	.byte	0xe
	.uleb128 0x20
	.byte	0x9d
	.uleb128 0x4
	.byte	0x9e
	.uleb128 0x3
	.byte	0x4
	.set L$set$543,LCFI286-LCFI285
	.long L$set$543
	.byte	0xde
	.byte	0xdd
	.byte	0xe
	.uleb128 0
	.align	3
LEFDE255:
LSFDE257:
	.set L$set$544,LEFDE257-LASFDE257
	.long L$set$544
LASFDE257:
	.long	LASFDE257-EH_frame1
	.quad	LFB3018-.
	.set L$set$545,LFE3018-LFB3018
	.quad L$set$545
	.uleb128 0x8
	.quad	0
	.byte	0x4
	.set L$set$546,LCFI287-LFB3018
	.long L$set$546
	.byte	0xe
	.uleb128 0x20
	.byte	0x9d
	.uleb128 0x4
	.byte	0x9e
	.uleb128 0x3
	.byte	0x4
	.set L$set$547,LCFI288-LCFI287
	.long L$set$547
	.byte	0xde
	.byte	0xdd
	.byte	0xe
	.uleb128 0
	.align	3
LEFDE257:
LSFDE259:
	.set L$set$548,LEFDE259-LASFDE259
	.long L$set$548
LASFDE259:
	.long	LASFDE259-EH_frame1
	.quad	LFB3019-.
	.set L$set$549,LFE3019-LFB3019
	.quad L$set$549
	.uleb128 0x8
	.quad	LLSDA3019-.
	.byte	0x4
	.set L$set$550,LCFI289-LFB3019
	.long L$set$550
	.byte	0xe
	.uleb128 0x50
	.byte	0x9d
	.uleb128 0xa
	.byte	0x9e
	.uleb128 0x9
	.byte	0x4
	.set L$set$551,LCFI290-LCFI289
	.long L$set$551
	.byte	0x93
	.uleb128 0x8
	.byte	0x4
	.set L$set$552,LCFI291-LCFI290
	.long L$set$552
	.byte	0xde
	.byte	0xdd
	.byte	0xd3
	.byte	0xe
	.uleb128 0
	.align	3
LEFDE259:
LSFDE261:
	.set L$set$553,LEFDE261-LASFDE261
	.long L$set$553
LASFDE261:
	.long	LASFDE261-EH_frame1
	.quad	LFB3064-.
	.set L$set$554,LFE3064-LFB3064
	.quad L$set$554
	.uleb128 0x8
	.quad	0
	.byte	0x4
	.set L$set$555,LCFI292-LFB3064
	.long L$set$555
	.byte	0xe
	.uleb128 0x10
	.byte	0x4
	.set L$set$556,LCFI293-LCFI292
	.long L$set$556
	.byte	0xe
	.uleb128 0
	.align	3
LEFDE261:
LSFDE263:
	.set L$set$557,LEFDE263-LASFDE263
	.long L$set$557
LASFDE263:
	.long	LASFDE263-EH_frame1
	.quad	LFB3065-.
	.set L$set$558,LFE3065-LFB3065
	.quad L$set$558
	.uleb128 0x8
	.quad	0
	.byte	0x4
	.set L$set$559,LCFI294-LFB3065
	.long L$set$559
	.byte	0xe
	.uleb128 0x20
	.byte	0x9d
	.uleb128 0x4
	.byte	0x9e
	.uleb128 0x3
	.byte	0x4
	.set L$set$560,LCFI295-LCFI294
	.long L$set$560
	.byte	0xde
	.byte	0xdd
	.byte	0xe
	.uleb128 0
	.align	3
LEFDE263:
LSFDE265:
	.set L$set$561,LEFDE265-LASFDE265
	.long L$set$561
LASFDE265:
	.long	LASFDE265-EH_frame1
	.quad	LFB3066-.
	.set L$set$562,LFE3066-LFB3066
	.quad L$set$562
	.uleb128 0x8
	.quad	0
	.byte	0x4
	.set L$set$563,LCFI296-LFB3066
	.long L$set$563
	.byte	0xe
	.uleb128 0x20
	.byte	0x9d
	.uleb128 0x4
	.byte	0x9e
	.uleb128 0x3
	.byte	0x4
	.set L$set$564,LCFI297-LCFI296
	.long L$set$564
	.byte	0xde
	.byte	0xdd
	.byte	0xe
	.uleb128 0
	.align	3
LEFDE265:
LSFDE267:
	.set L$set$565,LEFDE267-LASFDE267
	.long L$set$565
LASFDE267:
	.long	LASFDE267-EH_frame1
	.quad	LFB3067-.
	.set L$set$566,LFE3067-LFB3067
	.quad L$set$566
	.uleb128 0x8
	.quad	0
	.byte	0x4
	.set L$set$567,LCFI298-LFB3067
	.long L$set$567
	.byte	0xe
	.uleb128 0x10
	.byte	0x4
	.set L$set$568,LCFI299-LCFI298
	.long L$set$568
	.byte	0xe
	.uleb128 0
	.align	3
LEFDE267:
LSFDE269:
	.set L$set$569,LEFDE269-LASFDE269
	.long L$set$569
LASFDE269:
	.long	LASFDE269-EH_frame1
	.quad	LFB3068-.
	.set L$set$570,LFE3068-LFB3068
	.quad L$set$570
	.uleb128 0x8
	.quad	0
	.byte	0x4
	.set L$set$571,LCFI300-LFB3068
	.long L$set$571
	.byte	0xe
	.uleb128 0x30
	.byte	0x9d
	.uleb128 0x6
	.byte	0x9e
	.uleb128 0x5
	.byte	0x4
	.set L$set$572,LCFI301-LCFI300
	.long L$set$572
	.byte	0xde
	.byte	0xdd
	.byte	0xe
	.uleb128 0
	.align	3
LEFDE269:
LSFDE271:
	.set L$set$573,LEFDE271-LASFDE271
	.long L$set$573
LASFDE271:
	.long	LASFDE271-EH_frame1
	.quad	LFB3070-.
	.set L$set$574,LFE3070-LFB3070
	.quad L$set$574
	.uleb128 0x8
	.quad	0
	.byte	0x4
	.set L$set$575,LCFI302-LFB3070
	.long L$set$575
	.byte	0xe
	.uleb128 0x10
	.byte	0x4
	.set L$set$576,LCFI303-LCFI302
	.long L$set$576
	.byte	0xe
	.uleb128 0
	.align	3
LEFDE271:
LSFDE273:
	.set L$set$577,LEFDE273-LASFDE273
	.long L$set$577
LASFDE273:
	.long	LASFDE273-EH_frame1
	.quad	LFB3069-.
	.set L$set$578,LFE3069-LFB3069
	.quad L$set$578
	.uleb128 0x8
	.quad	0
	.byte	0x4
	.set L$set$579,LCFI304-LFB3069
	.long L$set$579
	.byte	0xe
	.uleb128 0x30
	.byte	0x9d
	.uleb128 0x6
	.byte	0x9e
	.uleb128 0x5
	.byte	0x4
	.set L$set$580,LCFI305-LCFI304
	.long L$set$580
	.byte	0xde
	.byte	0xdd
	.byte	0xe
	.uleb128 0
	.align	3
LEFDE273:
LSFDE275:
	.set L$set$581,LEFDE275-LASFDE275
	.long L$set$581
LASFDE275:
	.long	LASFDE275-EH_frame1
	.quad	LFB3071-.
	.set L$set$582,LFE3071-LFB3071
	.quad L$set$582
	.uleb128 0x8
	.quad	0
	.byte	0x4
	.set L$set$583,LCFI306-LFB3071
	.long L$set$583
	.byte	0xe
	.uleb128 0x40
	.byte	0x9d
	.uleb128 0x8
	.byte	0x9e
	.uleb128 0x7
	.byte	0x4
	.set L$set$584,LCFI307-LCFI306
	.long L$set$584
	.byte	0x93
	.uleb128 0x6
	.byte	0x94
	.uleb128 0x5
	.byte	0x4
	.set L$set$585,LCFI308-LCFI307
	.long L$set$585
	.byte	0xde
	.byte	0xdd
	.byte	0xd3
	.byte	0xd4
	.byte	0xe
	.uleb128 0
	.align	3
LEFDE275:
LSFDE277:
	.set L$set$586,LEFDE277-LASFDE277
	.long L$set$586
LASFDE277:
	.long	LASFDE277-EH_frame1
	.quad	LFB3072-.
	.set L$set$587,LFE3072-LFB3072
	.quad L$set$587
	.uleb128 0x8
	.quad	0
	.byte	0x4
	.set L$set$588,LCFI309-LFB3072
	.long L$set$588
	.byte	0xe
	.uleb128 0x20
	.byte	0x9d
	.uleb128 0x4
	.byte	0x9e
	.uleb128 0x3
	.byte	0x4
	.set L$set$589,LCFI310-LCFI309
	.long L$set$589
	.byte	0xde
	.byte	0xdd
	.byte	0xe
	.uleb128 0
	.align	3
LEFDE277:
LSFDE279:
	.set L$set$590,LEFDE279-LASFDE279
	.long L$set$590
LASFDE279:
	.long	LASFDE279-EH_frame1
	.quad	LFB3074-.
	.set L$set$591,LFE3074-LFB3074
	.quad L$set$591
	.uleb128 0x8
	.quad	0
	.byte	0x4
	.set L$set$592,LCFI311-LFB3074
	.long L$set$592
	.byte	0xe
	.uleb128 0x10
	.byte	0x4
	.set L$set$593,LCFI312-LCFI311
	.long L$set$593
	.byte	0xe
	.uleb128 0
	.align	3
LEFDE279:
LSFDE281:
	.set L$set$594,LEFDE281-LASFDE281
	.long L$set$594
LASFDE281:
	.long	LASFDE281-EH_frame1
	.quad	LFB3073-.
	.set L$set$595,LFE3073-LFB3073
	.quad L$set$595
	.uleb128 0x8
	.quad	0
	.byte	0x4
	.set L$set$596,LCFI313-LFB3073
	.long L$set$596
	.byte	0xe
	.uleb128 0x30
	.byte	0x9d
	.uleb128 0x6
	.byte	0x9e
	.uleb128 0x5
	.byte	0x4
	.set L$set$597,LCFI314-LCFI313
	.long L$set$597
	.byte	0xde
	.byte	0xdd
	.byte	0xe
	.uleb128 0
	.align	3
LEFDE281:
LSFDE283:
	.set L$set$598,LEFDE283-LASFDE283
	.long L$set$598
LASFDE283:
	.long	LASFDE283-EH_frame1
	.quad	LFB3076-.
	.set L$set$599,LFE3076-LFB3076
	.quad L$set$599
	.uleb128 0x8
	.quad	0
	.byte	0x4
	.set L$set$600,LCFI315-LFB3076
	.long L$set$600
	.byte	0xe
	.uleb128 0x10
	.byte	0x4
	.set L$set$601,LCFI316-LCFI315
	.long L$set$601
	.byte	0xe
	.uleb128 0
	.align	3
LEFDE283:
LSFDE285:
	.set L$set$602,LEFDE285-LASFDE285
	.long L$set$602
LASFDE285:
	.long	LASFDE285-EH_frame1
	.quad	LFB3075-.
	.set L$set$603,LFE3075-LFB3075
	.quad L$set$603
	.uleb128 0x8
	.quad	0
	.byte	0x4
	.set L$set$604,LCFI317-LFB3075
	.long L$set$604
	.byte	0xe
	.uleb128 0x30
	.byte	0x9d
	.uleb128 0x6
	.byte	0x9e
	.uleb128 0x5
	.byte	0x4
	.set L$set$605,LCFI318-LCFI317
	.long L$set$605
	.byte	0xde
	.byte	0xdd
	.byte	0xe
	.uleb128 0
	.align	3
LEFDE285:
LSFDE287:
	.set L$set$606,LEFDE287-LASFDE287
	.long L$set$606
LASFDE287:
	.long	LASFDE287-EH_frame1
	.quad	LFB3077-.
	.set L$set$607,LFE3077-LFB3077
	.quad L$set$607
	.uleb128 0x8
	.quad	0
	.byte	0x4
	.set L$set$608,LCFI319-LFB3077
	.long L$set$608
	.byte	0xe
	.uleb128 0x30
	.byte	0x9d
	.uleb128 0x6
	.byte	0x9e
	.uleb128 0x5
	.byte	0x4
	.set L$set$609,LCFI320-LCFI319
	.long L$set$609
	.byte	0xde
	.byte	0xdd
	.byte	0xe
	.uleb128 0
	.align	3
LEFDE287:
LSFDE289:
	.set L$set$610,LEFDE289-LASFDE289
	.long L$set$610
LASFDE289:
	.long	LASFDE289-EH_frame1
	.quad	LFB3078-.
	.set L$set$611,LFE3078-LFB3078
	.quad L$set$611
	.uleb128 0x8
	.quad	0
	.byte	0x4
	.set L$set$612,LCFI321-LFB3078
	.long L$set$612
	.byte	0xe
	.uleb128 0x40
	.byte	0x9d
	.uleb128 0x8
	.byte	0x9e
	.uleb128 0x7
	.byte	0x4
	.set L$set$613,LCFI322-LCFI321
	.long L$set$613
	.byte	0x93
	.uleb128 0x6
	.byte	0x94
	.uleb128 0x5
	.byte	0x4
	.set L$set$614,LCFI323-LCFI322
	.long L$set$614
	.byte	0xde
	.byte	0xdd
	.byte	0xd3
	.byte	0xd4
	.byte	0xe
	.uleb128 0
	.align	3
LEFDE289:
LSFDE291:
	.set L$set$615,LEFDE291-LASFDE291
	.long L$set$615
LASFDE291:
	.long	LASFDE291-EH_frame1
	.quad	LFB3079-.
	.set L$set$616,LFE3079-LFB3079
	.quad L$set$616
	.uleb128 0x8
	.quad	0
	.byte	0x4
	.set L$set$617,LCFI324-LFB3079
	.long L$set$617
	.byte	0xe
	.uleb128 0x10
	.byte	0x4
	.set L$set$618,LCFI325-LCFI324
	.long L$set$618
	.byte	0xe
	.uleb128 0
	.align	3
LEFDE291:
LSFDE293:
	.set L$set$619,LEFDE293-LASFDE293
	.long L$set$619
LASFDE293:
	.long	LASFDE293-EH_frame1
	.quad	LFB3081-.
	.set L$set$620,LFE3081-LFB3081
	.quad L$set$620
	.uleb128 0x8
	.quad	0
	.byte	0x4
	.set L$set$621,LCFI326-LFB3081
	.long L$set$621
	.byte	0xe
	.uleb128 0x10
	.byte	0x4
	.set L$set$622,LCFI327-LCFI326
	.long L$set$622
	.byte	0xe
	.uleb128 0
	.align	3
LEFDE293:
LSFDE295:
	.set L$set$623,LEFDE295-LASFDE295
	.long L$set$623
LASFDE295:
	.long	LASFDE295-EH_frame1
	.quad	LFB3085-.
	.set L$set$624,LFE3085-LFB3085
	.quad L$set$624
	.uleb128 0x8
	.quad	0
	.byte	0x4
	.set L$set$625,LCFI328-LFB3085
	.long L$set$625
	.byte	0xe
	.uleb128 0x10
	.byte	0x4
	.set L$set$626,LCFI329-LCFI328
	.long L$set$626
	.byte	0xe
	.uleb128 0
	.align	3
LEFDE295:
LSFDE297:
	.set L$set$627,LEFDE297-LASFDE297
	.long L$set$627
LASFDE297:
	.long	LASFDE297-EH_frame1
	.quad	LFB3086-.
	.set L$set$628,LFE3086-LFB3086
	.quad L$set$628
	.uleb128 0x8
	.quad	0
	.byte	0x4
	.set L$set$629,LCFI330-LFB3086
	.long L$set$629
	.byte	0xe
	.uleb128 0x20
	.byte	0x9d
	.uleb128 0x4
	.byte	0x9e
	.uleb128 0x3
	.byte	0x4
	.set L$set$630,LCFI331-LCFI330
	.long L$set$630
	.byte	0xde
	.byte	0xdd
	.byte	0xe
	.uleb128 0
	.align	3
LEFDE297:
LSFDE299:
	.set L$set$631,LEFDE299-LASFDE299
	.long L$set$631
LASFDE299:
	.long	LASFDE299-EH_frame1
	.quad	LFB3087-.
	.set L$set$632,LFE3087-LFB3087
	.quad L$set$632
	.uleb128 0x8
	.quad	0
	.byte	0x4
	.set L$set$633,LCFI332-LFB3087
	.long L$set$633
	.byte	0xe
	.uleb128 0x10
	.byte	0x9d
	.uleb128 0x2
	.byte	0x9e
	.uleb128 0x1
	.byte	0x4
	.set L$set$634,LCFI333-LCFI332
	.long L$set$634
	.byte	0xde
	.byte	0xdd
	.byte	0xe
	.uleb128 0
	.align	3
LEFDE299:
LSFDE301:
	.set L$set$635,LEFDE301-LASFDE301
	.long L$set$635
LASFDE301:
	.long	LASFDE301-EH_frame1
	.quad	LFB3088-.
	.set L$set$636,LFE3088-LFB3088
	.quad L$set$636
	.uleb128 0x8
	.quad	0
	.byte	0x4
	.set L$set$637,LCFI334-LFB3088
	.long L$set$637
	.byte	0xe
	.uleb128 0x10
	.byte	0x4
	.set L$set$638,LCFI335-LCFI334
	.long L$set$638
	.byte	0xe
	.uleb128 0
	.align	3
LEFDE301:
LSFDE303:
	.set L$set$639,LEFDE303-LASFDE303
	.long L$set$639
LASFDE303:
	.long	LASFDE303-EH_frame1
	.quad	LFB3091-.
	.set L$set$640,LFE3091-LFB3091
	.quad L$set$640
	.uleb128 0x8
	.quad	0
	.byte	0x4
	.set L$set$641,LCFI336-LFB3091
	.long L$set$641
	.byte	0xe
	.uleb128 0x20
	.byte	0x9d
	.uleb128 0x4
	.byte	0x9e
	.uleb128 0x3
	.byte	0x4
	.set L$set$642,LCFI337-LCFI336
	.long L$set$642
	.byte	0xde
	.byte	0xdd
	.byte	0xe
	.uleb128 0
	.align	3
LEFDE303:
LSFDE305:
	.set L$set$643,LEFDE305-LASFDE305
	.long L$set$643
LASFDE305:
	.long	LASFDE305-EH_frame1
	.quad	LFB3093-.
	.set L$set$644,LFE3093-LFB3093
	.quad L$set$644
	.uleb128 0x8
	.quad	0
	.byte	0x4
	.set L$set$645,LCFI338-LFB3093
	.long L$set$645
	.byte	0xe
	.uleb128 0x10
	.byte	0x4
	.set L$set$646,LCFI339-LCFI338
	.long L$set$646
	.byte	0xe
	.uleb128 0
	.align	3
LEFDE305:
LSFDE307:
	.set L$set$647,LEFDE307-LASFDE307
	.long L$set$647
LASFDE307:
	.long	LASFDE307-EH_frame1
	.quad	LFB3095-.
	.set L$set$648,LFE3095-LFB3095
	.quad L$set$648
	.uleb128 0x8
	.quad	0
	.byte	0x4
	.set L$set$649,LCFI340-LFB3095
	.long L$set$649
	.byte	0xe
	.uleb128 0x30
	.byte	0x9d
	.uleb128 0x6
	.byte	0x9e
	.uleb128 0x5
	.byte	0x4
	.set L$set$650,LCFI341-LCFI340
	.long L$set$650
	.byte	0xde
	.byte	0xdd
	.byte	0xe
	.uleb128 0
	.align	3
LEFDE307:
LSFDE309:
	.set L$set$651,LEFDE309-LASFDE309
	.long L$set$651
LASFDE309:
	.long	LASFDE309-EH_frame1
	.quad	LFB3096-.
	.set L$set$652,LFE3096-LFB3096
	.quad L$set$652
	.uleb128 0x8
	.quad	0
	.byte	0x4
	.set L$set$653,LCFI342-LFB3096
	.long L$set$653
	.byte	0xe
	.uleb128 0x20
	.byte	0x9d
	.uleb128 0x4
	.byte	0x9e
	.uleb128 0x3
	.byte	0x4
	.set L$set$654,LCFI343-LCFI342
	.long L$set$654
	.byte	0xde
	.byte	0xdd
	.byte	0xe
	.uleb128 0
	.align	3
LEFDE309:
LSFDE311:
	.set L$set$655,LEFDE311-LASFDE311
	.long L$set$655
LASFDE311:
	.long	LASFDE311-EH_frame1
	.quad	LFB3097-.
	.set L$set$656,LFE3097-LFB3097
	.quad L$set$656
	.uleb128 0x8
	.quad	0
	.byte	0x4
	.set L$set$657,LCFI344-LFB3097
	.long L$set$657
	.byte	0xe
	.uleb128 0x30
	.byte	0x9d
	.uleb128 0x6
	.byte	0x9e
	.uleb128 0x5
	.byte	0x4
	.set L$set$658,LCFI345-LCFI344
	.long L$set$658
	.byte	0xde
	.byte	0xdd
	.byte	0xe
	.uleb128 0
	.align	3
LEFDE311:
LSFDE313:
	.set L$set$659,LEFDE313-LASFDE313
	.long L$set$659
LASFDE313:
	.long	LASFDE313-EH_frame1
	.quad	LFB3098-.
	.set L$set$660,LFE3098-LFB3098
	.quad L$set$660
	.uleb128 0x8
	.quad	0
	.byte	0x4
	.set L$set$661,LCFI346-LFB3098
	.long L$set$661
	.byte	0xe
	.uleb128 0x70
	.byte	0x9d
	.uleb128 0xe
	.byte	0x9e
	.uleb128 0xd
	.byte	0x4
	.set L$set$662,LCFI347-LCFI346
	.long L$set$662
	.byte	0x93
	.uleb128 0xc
	.byte	0x4
	.set L$set$663,LCFI348-LCFI347
	.long L$set$663
	.byte	0xde
	.byte	0xdd
	.byte	0xd3
	.byte	0xe
	.uleb128 0
	.align	3
LEFDE313:
LSFDE315:
	.set L$set$664,LEFDE315-LASFDE315
	.long L$set$664
LASFDE315:
	.long	LASFDE315-EH_frame1
	.quad	LFB3100-.
	.set L$set$665,LFE3100-LFB3100
	.quad L$set$665
	.uleb128 0x8
	.quad	0
	.byte	0x4
	.set L$set$666,LCFI349-LFB3100
	.long L$set$666
	.byte	0xe
	.uleb128 0x10
	.byte	0x4
	.set L$set$667,LCFI350-LCFI349
	.long L$set$667
	.byte	0xe
	.uleb128 0
	.align	3
LEFDE315:
LSFDE317:
	.set L$set$668,LEFDE317-LASFDE317
	.long L$set$668
LASFDE317:
	.long	LASFDE317-EH_frame1
	.quad	LFB3102-.
	.set L$set$669,LFE3102-LFB3102
	.quad L$set$669
	.uleb128 0x8
	.quad	0
	.byte	0x4
	.set L$set$670,LCFI351-LFB3102
	.long L$set$670
	.byte	0xe
	.uleb128 0x30
	.byte	0x9d
	.uleb128 0x6
	.byte	0x9e
	.uleb128 0x5
	.byte	0x4
	.set L$set$671,LCFI352-LCFI351
	.long L$set$671
	.byte	0x93
	.uleb128 0x4
	.byte	0x4
	.set L$set$672,LCFI353-LCFI352
	.long L$set$672
	.byte	0xde
	.byte	0xdd
	.byte	0xd3
	.byte	0xe
	.uleb128 0
	.align	3
LEFDE317:
LSFDE319:
	.set L$set$673,LEFDE319-LASFDE319
	.long L$set$673
LASFDE319:
	.long	LASFDE319-EH_frame1
	.quad	LFB3103-.
	.set L$set$674,LFE3103-LFB3103
	.quad L$set$674
	.uleb128 0x8
	.quad	0
	.byte	0x4
	.set L$set$675,LCFI354-LFB3103
	.long L$set$675
	.byte	0xe
	.uleb128 0x10
	.byte	0x4
	.set L$set$676,LCFI355-LCFI354
	.long L$set$676
	.byte	0xe
	.uleb128 0
	.align	3
LEFDE319:
LSFDE321:
	.set L$set$677,LEFDE321-LASFDE321
	.long L$set$677
LASFDE321:
	.long	LASFDE321-EH_frame1
	.quad	LFB3104-.
	.set L$set$678,LFE3104-LFB3104
	.quad L$set$678
	.uleb128 0x8
	.quad	0
	.byte	0x4
	.set L$set$679,LCFI356-LFB3104
	.long L$set$679
	.byte	0xe
	.uleb128 0x10
	.byte	0x4
	.set L$set$680,LCFI357-LCFI356
	.long L$set$680
	.byte	0xe
	.uleb128 0
	.align	3
LEFDE321:
LSFDE323:
	.set L$set$681,LEFDE323-LASFDE323
	.long L$set$681
LASFDE323:
	.long	LASFDE323-EH_frame1
	.quad	LFB3105-.
	.set L$set$682,LFE3105-LFB3105
	.quad L$set$682
	.uleb128 0x8
	.quad	LLSDA3105-.
	.byte	0x4
	.set L$set$683,LCFI358-LFB3105
	.long L$set$683
	.byte	0xe
	.uleb128 0x40
	.byte	0x9d
	.uleb128 0x8
	.byte	0x9e
	.uleb128 0x7
	.byte	0x4
	.set L$set$684,LCFI359-LCFI358
	.long L$set$684
	.byte	0x93
	.uleb128 0x6
	.byte	0x94
	.uleb128 0x5
	.byte	0x95
	.uleb128 0x4
	.byte	0x4
	.set L$set$685,LCFI360-LCFI359
	.long L$set$685
	.byte	0xde
	.byte	0xdd
	.byte	0xd5
	.byte	0xd3
	.byte	0xd4
	.byte	0xe
	.uleb128 0
	.align	3
LEFDE323:
LSFDE325:
	.set L$set$686,LEFDE325-LASFDE325
	.long L$set$686
LASFDE325:
	.long	LASFDE325-EH_frame1
	.quad	LFB3132-.
	.set L$set$687,LFE3132-LFB3132
	.quad L$set$687
	.uleb128 0x8
	.quad	LLSDA3132-.
	.byte	0x4
	.set L$set$688,LCFI361-LFB3132
	.long L$set$688
	.byte	0xe
	.uleb128 0x30
	.byte	0x9d
	.uleb128 0x6
	.byte	0x9e
	.uleb128 0x5
	.byte	0x4
	.set L$set$689,LCFI362-LCFI361
	.long L$set$689
	.byte	0x93
	.uleb128 0x4
	.byte	0x94
	.uleb128 0x3
	.byte	0x4
	.set L$set$690,LCFI363-LCFI362
	.long L$set$690
	.byte	0xde
	.byte	0xdd
	.byte	0xd3
	.byte	0xd4
	.byte	0xe
	.uleb128 0
	.align	3
LEFDE325:
LSFDE327:
	.set L$set$691,LEFDE327-LASFDE327
	.long L$set$691
LASFDE327:
	.long	LASFDE327-EH_frame1
	.quad	LFB3133-.
	.set L$set$692,LFE3133-LFB3133
	.quad L$set$692
	.uleb128 0x8
	.quad	0
	.byte	0x4
	.set L$set$693,LCFI364-LFB3133
	.long L$set$693
	.byte	0xe
	.uleb128 0x20
	.byte	0x9d
	.uleb128 0x4
	.byte	0x9e
	.uleb128 0x3
	.byte	0x4
	.set L$set$694,LCFI365-LCFI364
	.long L$set$694
	.byte	0xde
	.byte	0xdd
	.byte	0xe
	.uleb128 0
	.align	3
LEFDE327:
LSFDE329:
	.set L$set$695,LEFDE329-LASFDE329
	.long L$set$695
LASFDE329:
	.long	LASFDE329-EH_frame1
	.quad	LFB3139-.
	.set L$set$696,LFE3139-LFB3139
	.quad L$set$696
	.uleb128 0x8
	.quad	0
	.byte	0x4
	.set L$set$697,LCFI366-LFB3139
	.long L$set$697
	.byte	0xe
	.uleb128 0x20
	.byte	0x9d
	.uleb128 0x4
	.byte	0x9e
	.uleb128 0x3
	.byte	0x4
	.set L$set$698,LCFI367-LCFI366
	.long L$set$698
	.byte	0xde
	.byte	0xdd
	.byte	0xe
	.uleb128 0
	.align	3
LEFDE329:
LSFDE331:
	.set L$set$699,LEFDE331-LASFDE331
	.long L$set$699
LASFDE331:
	.long	LASFDE331-EH_frame1
	.quad	LFB3140-.
	.set L$set$700,LFE3140-LFB3140
	.quad L$set$700
	.uleb128 0x8
	.quad	0
	.byte	0x4
	.set L$set$701,LCFI368-LFB3140
	.long L$set$701
	.byte	0xe
	.uleb128 0x20
	.byte	0x9d
	.uleb128 0x4
	.byte	0x9e
	.uleb128 0x3
	.byte	0x4
	.set L$set$702,LCFI369-LCFI368
	.long L$set$702
	.byte	0xde
	.byte	0xdd
	.byte	0xe
	.uleb128 0
	.align	3
LEFDE331:
LSFDE333:
	.set L$set$703,LEFDE333-LASFDE333
	.long L$set$703
LASFDE333:
	.long	LASFDE333-EH_frame1
	.quad	LFB3143-.
	.set L$set$704,LFE3143-LFB3143
	.quad L$set$704
	.uleb128 0x8
	.quad	0
	.byte	0x4
	.set L$set$705,LCFI370-LFB3143
	.long L$set$705
	.byte	0xe
	.uleb128 0x20
	.byte	0x9d
	.uleb128 0x4
	.byte	0x9e
	.uleb128 0x3
	.byte	0x4
	.set L$set$706,LCFI371-LCFI370
	.long L$set$706
	.byte	0xde
	.byte	0xdd
	.byte	0xe
	.uleb128 0
	.align	3
LEFDE333:
LSFDE335:
	.set L$set$707,LEFDE335-LASFDE335
	.long L$set$707
LASFDE335:
	.long	LASFDE335-EH_frame1
	.quad	LFB3134-.
	.set L$set$708,LFE3134-LFB3134
	.quad L$set$708
	.uleb128 0x8
	.quad	0
	.byte	0x4
	.set L$set$709,LCFI372-LFB3134
	.long L$set$709
	.byte	0xe
	.uleb128 0x20
	.byte	0x9d
	.uleb128 0x4
	.byte	0x9e
	.uleb128 0x3
	.byte	0x4
	.set L$set$710,LCFI373-LCFI372
	.long L$set$710
	.byte	0xde
	.byte	0xdd
	.byte	0xe
	.uleb128 0
	.align	3
LEFDE335:
LSFDE337:
	.set L$set$711,LEFDE337-LASFDE337
	.long L$set$711
LASFDE337:
	.long	LASFDE337-EH_frame1
	.quad	LFB3144-.
	.set L$set$712,LFE3144-LFB3144
	.quad L$set$712
	.uleb128 0x8
	.quad	0
	.byte	0x4
	.set L$set$713,LCFI374-LFB3144
	.long L$set$713
	.byte	0xe
	.uleb128 0x10
	.byte	0x4
	.set L$set$714,LCFI375-LCFI374
	.long L$set$714
	.byte	0xe
	.uleb128 0
	.align	3
LEFDE337:
LSFDE339:
	.set L$set$715,LEFDE339-LASFDE339
	.long L$set$715
LASFDE339:
	.long	LASFDE339-EH_frame1
	.quad	LFB3145-.
	.set L$set$716,LFE3145-LFB3145
	.quad L$set$716
	.uleb128 0x8
	.quad	0
	.byte	0x4
	.set L$set$717,LCFI376-LFB3145
	.long L$set$717
	.byte	0xe
	.uleb128 0x50
	.byte	0x9d
	.uleb128 0xa
	.byte	0x9e
	.uleb128 0x9
	.byte	0x4
	.set L$set$718,LCFI377-LCFI376
	.long L$set$718
	.byte	0x93
	.uleb128 0x8
	.byte	0x4
	.set L$set$719,LCFI378-LCFI377
	.long L$set$719
	.byte	0xde
	.byte	0xdd
	.byte	0xd3
	.byte	0xe
	.uleb128 0
	.align	3
LEFDE339:
LSFDE341:
	.set L$set$720,LEFDE341-LASFDE341
	.long L$set$720
LASFDE341:
	.long	LASFDE341-EH_frame1
	.quad	LFB3146-.
	.set L$set$721,LFE3146-LFB3146
	.quad L$set$721
	.uleb128 0x8
	.quad	0
	.byte	0x4
	.set L$set$722,LCFI379-LFB3146
	.long L$set$722
	.byte	0xe
	.uleb128 0x20
	.byte	0x9d
	.uleb128 0x4
	.byte	0x9e
	.uleb128 0x3
	.byte	0x4
	.set L$set$723,LCFI380-LCFI379
	.long L$set$723
	.byte	0xde
	.byte	0xdd
	.byte	0xe
	.uleb128 0
	.align	3
LEFDE341:
LSFDE343:
	.set L$set$724,LEFDE343-LASFDE343
	.long L$set$724
LASFDE343:
	.long	LASFDE343-EH_frame1
	.quad	LFB3147-.
	.set L$set$725,LFE3147-LFB3147
	.quad L$set$725
	.uleb128 0x8
	.quad	0
	.byte	0x4
	.set L$set$726,LCFI381-LFB3147
	.long L$set$726
	.byte	0xe
	.uleb128 0x20
	.byte	0x9d
	.uleb128 0x4
	.byte	0x9e
	.uleb128 0x3
	.byte	0x4
	.set L$set$727,LCFI382-LCFI381
	.long L$set$727
	.byte	0xde
	.byte	0xdd
	.byte	0xe
	.uleb128 0
	.align	3
LEFDE343:
LSFDE345:
	.set L$set$728,LEFDE345-LASFDE345
	.long L$set$728
LASFDE345:
	.long	LASFDE345-EH_frame1
	.quad	LFB3148-.
	.set L$set$729,LFE3148-LFB3148
	.quad L$set$729
	.uleb128 0x8
	.quad	0
	.byte	0x4
	.set L$set$730,LCFI383-LFB3148
	.long L$set$730
	.byte	0xe
	.uleb128 0x50
	.byte	0x9d
	.uleb128 0xa
	.byte	0x9e
	.uleb128 0x9
	.byte	0x4
	.set L$set$731,LCFI384-LCFI383
	.long L$set$731
	.byte	0x93
	.uleb128 0x8
	.byte	0x94
	.uleb128 0x7
	.byte	0x95
	.uleb128 0x6
	.byte	0x4
	.set L$set$732,LCFI385-LCFI384
	.long L$set$732
	.byte	0xde
	.byte	0xdd
	.byte	0xd5
	.byte	0xd3
	.byte	0xd4
	.byte	0xe
	.uleb128 0
	.align	3
LEFDE345:
LSFDE347:
	.set L$set$733,LEFDE347-LASFDE347
	.long L$set$733
LASFDE347:
	.long	LASFDE347-EH_frame1
	.quad	LFB3149-.
	.set L$set$734,LFE3149-LFB3149
	.quad L$set$734
	.uleb128 0x8
	.quad	0
	.byte	0x4
	.set L$set$735,LCFI386-LFB3149
	.long L$set$735
	.byte	0xe
	.uleb128 0x10
	.byte	0x4
	.set L$set$736,LCFI387-LCFI386
	.long L$set$736
	.byte	0xe
	.uleb128 0
	.align	3
LEFDE347:
LSFDE349:
	.set L$set$737,LEFDE349-LASFDE349
	.long L$set$737
LASFDE349:
	.long	LASFDE349-EH_frame1
	.quad	LFB3150-.
	.set L$set$738,LFE3150-LFB3150
	.quad L$set$738
	.uleb128 0x8
	.quad	0
	.byte	0x4
	.set L$set$739,LCFI388-LFB3150
	.long L$set$739
	.byte	0xe
	.uleb128 0x40
	.byte	0x9d
	.uleb128 0x8
	.byte	0x9e
	.uleb128 0x7
	.byte	0x4
	.set L$set$740,LCFI389-LCFI388
	.long L$set$740
	.byte	0xde
	.byte	0xdd
	.byte	0xe
	.uleb128 0
	.align	3
LEFDE349:
LSFDE351:
	.set L$set$741,LEFDE351-LASFDE351
	.long L$set$741
LASFDE351:
	.long	LASFDE351-EH_frame1
	.quad	LFB3152-.
	.set L$set$742,LFE3152-LFB3152
	.quad L$set$742
	.uleb128 0x8
	.quad	0
	.byte	0x4
	.set L$set$743,LCFI390-LFB3152
	.long L$set$743
	.byte	0xe
	.uleb128 0x10
	.byte	0x4
	.set L$set$744,LCFI391-LCFI390
	.long L$set$744
	.byte	0xe
	.uleb128 0
	.align	3
LEFDE351:
LSFDE353:
	.set L$set$745,LEFDE353-LASFDE353
	.long L$set$745
LASFDE353:
	.long	LASFDE353-EH_frame1
	.quad	LFB3151-.
	.set L$set$746,LFE3151-LFB3151
	.quad L$set$746
	.uleb128 0x8
	.quad	0
	.byte	0x4
	.set L$set$747,LCFI392-LFB3151
	.long L$set$747
	.byte	0xe
	.uleb128 0x30
	.byte	0x9d
	.uleb128 0x6
	.byte	0x9e
	.uleb128 0x5
	.byte	0x4
	.set L$set$748,LCFI393-LCFI392
	.long L$set$748
	.byte	0xde
	.byte	0xdd
	.byte	0xe
	.uleb128 0
	.align	3
LEFDE353:
LSFDE355:
	.set L$set$749,LEFDE355-LASFDE355
	.long L$set$749
LASFDE355:
	.long	LASFDE355-EH_frame1
	.quad	LFB3154-.
	.set L$set$750,LFE3154-LFB3154
	.quad L$set$750
	.uleb128 0x8
	.quad	0
	.byte	0x4
	.set L$set$751,LCFI394-LFB3154
	.long L$set$751
	.byte	0xe
	.uleb128 0x10
	.byte	0x4
	.set L$set$752,LCFI395-LCFI394
	.long L$set$752
	.byte	0xe
	.uleb128 0
	.align	3
LEFDE355:
LSFDE357:
	.set L$set$753,LEFDE357-LASFDE357
	.long L$set$753
LASFDE357:
	.long	LASFDE357-EH_frame1
	.quad	LFB3156-.
	.set L$set$754,LFE3156-LFB3156
	.quad L$set$754
	.uleb128 0x8
	.quad	0
	.byte	0x4
	.set L$set$755,LCFI396-LFB3156
	.long L$set$755
	.byte	0xe
	.uleb128 0x40
	.byte	0x9d
	.uleb128 0x8
	.byte	0x9e
	.uleb128 0x7
	.byte	0x4
	.set L$set$756,LCFI397-LCFI396
	.long L$set$756
	.byte	0x93
	.uleb128 0x6
	.byte	0x4
	.set L$set$757,LCFI398-LCFI397
	.long L$set$757
	.byte	0xde
	.byte	0xdd
	.byte	0xd3
	.byte	0xe
	.uleb128 0
	.align	3
LEFDE357:
LSFDE359:
	.set L$set$758,LEFDE359-LASFDE359
	.long L$set$758
LASFDE359:
	.long	LASFDE359-EH_frame1
	.quad	LFB3157-.
	.set L$set$759,LFE3157-LFB3157
	.quad L$set$759
	.uleb128 0x8
	.quad	0
	.byte	0x4
	.set L$set$760,LCFI399-LFB3157
	.long L$set$760
	.byte	0xe
	.uleb128 0x40
	.byte	0x9d
	.uleb128 0x8
	.byte	0x9e
	.uleb128 0x7
	.byte	0x4
	.set L$set$761,LCFI400-LCFI399
	.long L$set$761
	.byte	0x93
	.uleb128 0x6
	.byte	0x4
	.set L$set$762,LCFI401-LCFI400
	.long L$set$762
	.byte	0xde
	.byte	0xdd
	.byte	0xd3
	.byte	0xe
	.uleb128 0
	.align	3
LEFDE359:
LSFDE361:
	.set L$set$763,LEFDE361-LASFDE361
	.long L$set$763
LASFDE361:
	.long	LASFDE361-EH_frame1
	.quad	LFB3158-.
	.set L$set$764,LFE3158-LFB3158
	.quad L$set$764
	.uleb128 0x8
	.quad	0
	.byte	0x4
	.set L$set$765,LCFI402-LFB3158
	.long L$set$765
	.byte	0xe
	.uleb128 0x10
	.byte	0x4
	.set L$set$766,LCFI403-LCFI402
	.long L$set$766
	.byte	0xe
	.uleb128 0
	.align	3
LEFDE361:
LSFDE363:
	.set L$set$767,LEFDE363-LASFDE363
	.long L$set$767
LASFDE363:
	.long	LASFDE363-EH_frame1
	.quad	LFB3159-.
	.set L$set$768,LFE3159-LFB3159
	.quad L$set$768
	.uleb128 0x8
	.quad	0
	.byte	0x4
	.set L$set$769,LCFI404-LFB3159
	.long L$set$769
	.byte	0xe
	.uleb128 0x10
	.byte	0x4
	.set L$set$770,LCFI405-LCFI404
	.long L$set$770
	.byte	0xe
	.uleb128 0
	.align	3
LEFDE363:
LSFDE365:
	.set L$set$771,LEFDE365-LASFDE365
	.long L$set$771
LASFDE365:
	.long	LASFDE365-EH_frame1
	.quad	LFB3162-.
	.set L$set$772,LFE3162-LFB3162
	.quad L$set$772
	.uleb128 0x8
	.quad	LLSDA3162-.
	.byte	0x4
	.set L$set$773,LCFI406-LFB3162
	.long L$set$773
	.byte	0xe
	.uleb128 0x50
	.byte	0x9d
	.uleb128 0xa
	.byte	0x9e
	.uleb128 0x9
	.byte	0x4
	.set L$set$774,LCFI407-LCFI406
	.long L$set$774
	.byte	0x93
	.uleb128 0x8
	.byte	0x94
	.uleb128 0x7
	.byte	0x95
	.uleb128 0x6
	.byte	0x4
	.set L$set$775,LCFI408-LCFI407
	.long L$set$775
	.byte	0xde
	.byte	0xdd
	.byte	0xd5
	.byte	0xd3
	.byte	0xd4
	.byte	0xe
	.uleb128 0
	.align	3
LEFDE365:
LSFDE367:
	.set L$set$776,LEFDE367-LASFDE367
	.long L$set$776
LASFDE367:
	.long	LASFDE367-EH_frame1
	.quad	LFB3176-.
	.set L$set$777,LFE3176-LFB3176
	.quad L$set$777
	.uleb128 0x8
	.quad	LLSDA3176-.
	.byte	0x4
	.set L$set$778,LCFI409-LFB3176
	.long L$set$778
	.byte	0xe
	.uleb128 0x20
	.byte	0x9d
	.uleb128 0x4
	.byte	0x9e
	.uleb128 0x3
	.byte	0x4
	.set L$set$779,LCFI410-LCFI409
	.long L$set$779
	.byte	0xde
	.byte	0xdd
	.byte	0xe
	.uleb128 0
	.align	3
LEFDE367:
LSFDE369:
	.set L$set$780,LEFDE369-LASFDE369
	.long L$set$780
LASFDE369:
	.long	LASFDE369-EH_frame1
	.quad	LFB3180-.
	.set L$set$781,LFE3180-LFB3180
	.quad L$set$781
	.uleb128 0x8
	.quad	0
	.byte	0x4
	.set L$set$782,LCFI411-LFB3180
	.long L$set$782
	.byte	0xe
	.uleb128 0x20
	.byte	0x9d
	.uleb128 0x4
	.byte	0x9e
	.uleb128 0x3
	.byte	0x4
	.set L$set$783,LCFI412-LCFI411
	.long L$set$783
	.byte	0xde
	.byte	0xdd
	.byte	0xe
	.uleb128 0
	.align	3
LEFDE369:
LSFDE371:
	.set L$set$784,LEFDE371-LASFDE371
	.long L$set$784
LASFDE371:
	.long	LASFDE371-EH_frame1
	.quad	LFB3181-.
	.set L$set$785,LFE3181-LFB3181
	.quad L$set$785
	.uleb128 0x8
	.quad	0
	.byte	0x4
	.set L$set$786,LCFI413-LFB3181
	.long L$set$786
	.byte	0xe
	.uleb128 0x30
	.byte	0x9d
	.uleb128 0x6
	.byte	0x9e
	.uleb128 0x5
	.byte	0x4
	.set L$set$787,LCFI414-LCFI413
	.long L$set$787
	.byte	0xde
	.byte	0xdd
	.byte	0xe
	.uleb128 0
	.align	3
LEFDE371:
LSFDE373:
	.set L$set$788,LEFDE373-LASFDE373
	.long L$set$788
LASFDE373:
	.long	LASFDE373-EH_frame1
	.quad	LFB3182-.
	.set L$set$789,LFE3182-LFB3182
	.quad L$set$789
	.uleb128 0x8
	.quad	0
	.byte	0x4
	.set L$set$790,LCFI415-LFB3182
	.long L$set$790
	.byte	0xe
	.uleb128 0x10
	.byte	0x4
	.set L$set$791,LCFI416-LCFI415
	.long L$set$791
	.byte	0xe
	.uleb128 0
	.align	3
LEFDE373:
LSFDE375:
	.set L$set$792,LEFDE375-LASFDE375
	.long L$set$792
LASFDE375:
	.long	LASFDE375-EH_frame1
	.quad	LFB3183-.
	.set L$set$793,LFE3183-LFB3183
	.quad L$set$793
	.uleb128 0x8
	.quad	0
	.byte	0x4
	.set L$set$794,LCFI417-LFB3183
	.long L$set$794
	.byte	0xe
	.uleb128 0x30
	.byte	0x9d
	.uleb128 0x6
	.byte	0x9e
	.uleb128 0x5
	.byte	0x4
	.set L$set$795,LCFI418-LCFI417
	.long L$set$795
	.byte	0xde
	.byte	0xdd
	.byte	0xe
	.uleb128 0
	.align	3
LEFDE375:
LSFDE377:
	.set L$set$796,LEFDE377-LASFDE377
	.long L$set$796
LASFDE377:
	.long	LASFDE377-EH_frame1
	.quad	LFB3184-.
	.set L$set$797,LFE3184-LFB3184
	.quad L$set$797
	.uleb128 0x8
	.quad	0
	.byte	0x4
	.set L$set$798,LCFI419-LFB3184
	.long L$set$798
	.byte	0xe
	.uleb128 0x10
	.byte	0x4
	.set L$set$799,LCFI420-LCFI419
	.long L$set$799
	.byte	0xe
	.uleb128 0
	.align	3
LEFDE377:
LSFDE379:
	.set L$set$800,LEFDE379-LASFDE379
	.long L$set$800
LASFDE379:
	.long	LASFDE379-EH_frame1
	.quad	LFB3185-.
	.set L$set$801,LFE3185-LFB3185
	.quad L$set$801
	.uleb128 0x8
	.quad	0
	.byte	0x4
	.set L$set$802,LCFI421-LFB3185
	.long L$set$802
	.byte	0xe
	.uleb128 0x40
	.byte	0x9d
	.uleb128 0x8
	.byte	0x9e
	.uleb128 0x7
	.byte	0x4
	.set L$set$803,LCFI422-LCFI421
	.long L$set$803
	.byte	0x93
	.uleb128 0x6
	.byte	0x94
	.uleb128 0x5
	.byte	0x4
	.set L$set$804,LCFI423-LCFI422
	.long L$set$804
	.byte	0xde
	.byte	0xdd
	.byte	0xd3
	.byte	0xd4
	.byte	0xe
	.uleb128 0
	.align	3
LEFDE379:
LSFDE381:
	.set L$set$805,LEFDE381-LASFDE381
	.long L$set$805
LASFDE381:
	.long	LASFDE381-EH_frame1
	.quad	LFB3187-.
	.set L$set$806,LFE3187-LFB3187
	.quad L$set$806
	.uleb128 0x8
	.quad	0
	.byte	0x4
	.set L$set$807,LCFI424-LFB3187
	.long L$set$807
	.byte	0xe
	.uleb128 0x40
	.byte	0x9d
	.uleb128 0x8
	.byte	0x9e
	.uleb128 0x7
	.byte	0x4
	.set L$set$808,LCFI425-LCFI424
	.long L$set$808
	.byte	0x93
	.uleb128 0x6
	.byte	0x94
	.uleb128 0x5
	.byte	0x4
	.set L$set$809,LCFI426-LCFI425
	.long L$set$809
	.byte	0xde
	.byte	0xdd
	.byte	0xd3
	.byte	0xd4
	.byte	0xe
	.uleb128 0
	.align	3
LEFDE381:
LSFDE383:
	.set L$set$810,LEFDE383-LASFDE383
	.long L$set$810
LASFDE383:
	.long	LASFDE383-EH_frame1
	.quad	LFB3188-.
	.set L$set$811,LFE3188-LFB3188
	.quad L$set$811
	.uleb128 0x8
	.quad	0
	.byte	0x4
	.set L$set$812,LCFI427-LFB3188
	.long L$set$812
	.byte	0xe
	.uleb128 0x30
	.byte	0x9d
	.uleb128 0x6
	.byte	0x9e
	.uleb128 0x5
	.byte	0x4
	.set L$set$813,LCFI428-LCFI427
	.long L$set$813
	.byte	0x93
	.uleb128 0x4
	.byte	0x4
	.set L$set$814,LCFI429-LCFI428
	.long L$set$814
	.byte	0xde
	.byte	0xdd
	.byte	0xd3
	.byte	0xe
	.uleb128 0
	.align	3
LEFDE383:
LSFDE385:
	.set L$set$815,LEFDE385-LASFDE385
	.long L$set$815
LASFDE385:
	.long	LASFDE385-EH_frame1
	.quad	LFB3190-.
	.set L$set$816,LFE3190-LFB3190
	.quad L$set$816
	.uleb128 0x8
	.quad	LLSDA3190-.
	.byte	0x4
	.set L$set$817,LCFI430-LFB3190
	.long L$set$817
	.byte	0xe
	.uleb128 0x40
	.byte	0x9d
	.uleb128 0x8
	.byte	0x9e
	.uleb128 0x7
	.byte	0x4
	.set L$set$818,LCFI431-LCFI430
	.long L$set$818
	.byte	0x93
	.uleb128 0x6
	.byte	0x4
	.set L$set$819,LCFI432-LCFI431
	.long L$set$819
	.byte	0xde
	.byte	0xdd
	.byte	0xd3
	.byte	0xe
	.uleb128 0
	.align	3
LEFDE385:
LSFDE387:
	.set L$set$820,LEFDE387-LASFDE387
	.long L$set$820
LASFDE387:
	.long	LASFDE387-EH_frame1
	.quad	LFB3192-.
	.set L$set$821,LFE3192-LFB3192
	.quad L$set$821
	.uleb128 0x8
	.quad	0
	.byte	0x4
	.set L$set$822,LCFI433-LFB3192
	.long L$set$822
	.byte	0xe
	.uleb128 0x30
	.byte	0x9d
	.uleb128 0x6
	.byte	0x9e
	.uleb128 0x5
	.byte	0x4
	.set L$set$823,LCFI434-LCFI433
	.long L$set$823
	.byte	0xde
	.byte	0xdd
	.byte	0xe
	.uleb128 0
	.align	3
LEFDE387:
LSFDE389:
	.set L$set$824,LEFDE389-LASFDE389
	.long L$set$824
LASFDE389:
	.long	LASFDE389-EH_frame1
	.quad	LFB3193-.
	.set L$set$825,LFE3193-LFB3193
	.quad L$set$825
	.uleb128 0x8
	.quad	0
	.byte	0x4
	.set L$set$826,LCFI435-LFB3193
	.long L$set$826
	.byte	0xe
	.uleb128 0x30
	.byte	0x9d
	.uleb128 0x6
	.byte	0x9e
	.uleb128 0x5
	.byte	0x4
	.set L$set$827,LCFI436-LCFI435
	.long L$set$827
	.byte	0xde
	.byte	0xdd
	.byte	0xe
	.uleb128 0
	.align	3
LEFDE389:
LSFDE391:
	.set L$set$828,LEFDE391-LASFDE391
	.long L$set$828
LASFDE391:
	.long	LASFDE391-EH_frame1
	.quad	LFB3194-.
	.set L$set$829,LFE3194-LFB3194
	.quad L$set$829
	.uleb128 0x8
	.quad	0
	.byte	0x4
	.set L$set$830,LCFI437-LFB3194
	.long L$set$830
	.byte	0xe
	.uleb128 0x30
	.byte	0x9d
	.uleb128 0x6
	.byte	0x9e
	.uleb128 0x5
	.byte	0x4
	.set L$set$831,LCFI438-LCFI437
	.long L$set$831
	.byte	0xde
	.byte	0xdd
	.byte	0xe
	.uleb128 0
	.align	3
LEFDE391:
LSFDE393:
	.set L$set$832,LEFDE393-LASFDE393
	.long L$set$832
LASFDE393:
	.long	LASFDE393-EH_frame1
	.quad	LFB3198-.
	.set L$set$833,LFE3198-LFB3198
	.quad L$set$833
	.uleb128 0x8
	.quad	0
	.byte	0x4
	.set L$set$834,LCFI439-LFB3198
	.long L$set$834
	.byte	0xe
	.uleb128 0x10
	.byte	0x4
	.set L$set$835,LCFI440-LCFI439
	.long L$set$835
	.byte	0xe
	.uleb128 0
	.align	3
LEFDE393:
LSFDE395:
	.set L$set$836,LEFDE395-LASFDE395
	.long L$set$836
LASFDE395:
	.long	LASFDE395-EH_frame1
	.quad	LFB3200-.
	.set L$set$837,LFE3200-LFB3200
	.quad L$set$837
	.uleb128 0x8
	.quad	0
	.byte	0x4
	.set L$set$838,LCFI441-LFB3200
	.long L$set$838
	.byte	0xe
	.uleb128 0x10
	.byte	0x4
	.set L$set$839,LCFI442-LCFI441
	.long L$set$839
	.byte	0xe
	.uleb128 0
	.align	3
LEFDE395:
LSFDE397:
	.set L$set$840,LEFDE397-LASFDE397
	.long L$set$840
LASFDE397:
	.long	LASFDE397-EH_frame1
	.quad	LFB3201-.
	.set L$set$841,LFE3201-LFB3201
	.quad L$set$841
	.uleb128 0x8
	.quad	0
	.byte	0x4
	.set L$set$842,LCFI443-LFB3201
	.long L$set$842
	.byte	0xe
	.uleb128 0x30
	.byte	0x9d
	.uleb128 0x6
	.byte	0x9e
	.uleb128 0x5
	.byte	0x4
	.set L$set$843,LCFI444-LCFI443
	.long L$set$843
	.byte	0xde
	.byte	0xdd
	.byte	0xe
	.uleb128 0
	.align	3
LEFDE397:
LSFDE399:
	.set L$set$844,LEFDE399-LASFDE399
	.long L$set$844
LASFDE399:
	.long	LASFDE399-EH_frame1
	.quad	LFB3202-.
	.set L$set$845,LFE3202-LFB3202
	.quad L$set$845
	.uleb128 0x8
	.quad	0
	.byte	0x4
	.set L$set$846,LCFI445-LFB3202
	.long L$set$846
	.byte	0xe
	.uleb128 0x20
	.byte	0x9d
	.uleb128 0x4
	.byte	0x9e
	.uleb128 0x3
	.byte	0x4
	.set L$set$847,LCFI446-LCFI445
	.long L$set$847
	.byte	0xde
	.byte	0xdd
	.byte	0xe
	.uleb128 0
	.align	3
LEFDE399:
LSFDE401:
	.set L$set$848,LEFDE401-LASFDE401
	.long L$set$848
LASFDE401:
	.long	LASFDE401-EH_frame1
	.quad	LFB3203-.
	.set L$set$849,LFE3203-LFB3203
	.quad L$set$849
	.uleb128 0x8
	.quad	0
	.byte	0x4
	.set L$set$850,LCFI447-LFB3203
	.long L$set$850
	.byte	0xe
	.uleb128 0x30
	.byte	0x9d
	.uleb128 0x6
	.byte	0x9e
	.uleb128 0x5
	.byte	0x4
	.set L$set$851,LCFI448-LCFI447
	.long L$set$851
	.byte	0xde
	.byte	0xdd
	.byte	0xe
	.uleb128 0
	.align	3
LEFDE401:
LSFDE403:
	.set L$set$852,LEFDE403-LASFDE403
	.long L$set$852
LASFDE403:
	.long	LASFDE403-EH_frame1
	.quad	LFB3204-.
	.set L$set$853,LFE3204-LFB3204
	.quad L$set$853
	.uleb128 0x8
	.quad	0
	.byte	0x4
	.set L$set$854,LCFI449-LFB3204
	.long L$set$854
	.byte	0xe
	.uleb128 0x10
	.byte	0x4
	.set L$set$855,LCFI450-LCFI449
	.long L$set$855
	.byte	0xe
	.uleb128 0
	.align	3
LEFDE403:
LSFDE405:
	.set L$set$856,LEFDE405-LASFDE405
	.long L$set$856
LASFDE405:
	.long	LASFDE405-EH_frame1
	.quad	LFB3205-.
	.set L$set$857,LFE3205-LFB3205
	.quad L$set$857
	.uleb128 0x8
	.quad	0
	.byte	0x4
	.set L$set$858,LCFI451-LFB3205
	.long L$set$858
	.byte	0xe
	.uleb128 0x30
	.byte	0x9d
	.uleb128 0x6
	.byte	0x9e
	.uleb128 0x5
	.byte	0x4
	.set L$set$859,LCFI452-LCFI451
	.long L$set$859
	.byte	0xde
	.byte	0xdd
	.byte	0xe
	.uleb128 0
	.align	3
LEFDE405:
LSFDE407:
	.set L$set$860,LEFDE407-LASFDE407
	.long L$set$860
LASFDE407:
	.long	LASFDE407-EH_frame1
	.quad	LFB3206-.
	.set L$set$861,LFE3206-LFB3206
	.quad L$set$861
	.uleb128 0x8
	.quad	0
	.byte	0x4
	.set L$set$862,LCFI453-LFB3206
	.long L$set$862
	.byte	0xe
	.uleb128 0x10
	.byte	0x4
	.set L$set$863,LCFI454-LCFI453
	.long L$set$863
	.byte	0xe
	.uleb128 0
	.align	3
LEFDE407:
LSFDE409:
	.set L$set$864,LEFDE409-LASFDE409
	.long L$set$864
LASFDE409:
	.long	LASFDE409-EH_frame1
	.quad	LFB3207-.
	.set L$set$865,LFE3207-LFB3207
	.quad L$set$865
	.uleb128 0x8
	.quad	0
	.byte	0x4
	.set L$set$866,LCFI455-LFB3207
	.long L$set$866
	.byte	0xe
	.uleb128 0x30
	.byte	0x9d
	.uleb128 0x6
	.byte	0x9e
	.uleb128 0x5
	.byte	0x4
	.set L$set$867,LCFI456-LCFI455
	.long L$set$867
	.byte	0xde
	.byte	0xdd
	.byte	0xe
	.uleb128 0
	.align	3
LEFDE409:
LSFDE411:
	.set L$set$868,LEFDE411-LASFDE411
	.long L$set$868
LASFDE411:
	.long	LASFDE411-EH_frame1
	.quad	LFB3208-.
	.set L$set$869,LFE3208-LFB3208
	.quad L$set$869
	.uleb128 0x8
	.quad	0
	.byte	0x4
	.set L$set$870,LCFI457-LFB3208
	.long L$set$870
	.byte	0xe
	.uleb128 0x30
	.byte	0x9d
	.uleb128 0x6
	.byte	0x9e
	.uleb128 0x5
	.byte	0x4
	.set L$set$871,LCFI458-LCFI457
	.long L$set$871
	.byte	0x93
	.uleb128 0x4
	.byte	0x4
	.set L$set$872,LCFI459-LCFI458
	.long L$set$872
	.byte	0xde
	.byte	0xdd
	.byte	0xd3
	.byte	0xe
	.uleb128 0
	.align	3
LEFDE411:
LSFDE413:
	.set L$set$873,LEFDE413-LASFDE413
	.long L$set$873
LASFDE413:
	.long	LASFDE413-EH_frame1
	.quad	LFB3211-.
	.set L$set$874,LFE3211-LFB3211
	.quad L$set$874
	.uleb128 0x8
	.quad	0
	.byte	0x4
	.set L$set$875,LCFI460-LFB3211
	.long L$set$875
	.byte	0xe
	.uleb128 0x20
	.byte	0x9d
	.uleb128 0x4
	.byte	0x9e
	.uleb128 0x3
	.byte	0x4
	.set L$set$876,LCFI461-LCFI460
	.long L$set$876
	.byte	0xde
	.byte	0xdd
	.byte	0xe
	.uleb128 0
	.align	3
LEFDE413:
LSFDE415:
	.set L$set$877,LEFDE415-LASFDE415
	.long L$set$877
LASFDE415:
	.long	LASFDE415-EH_frame1
	.quad	LFB3212-.
	.set L$set$878,LFE3212-LFB3212
	.quad L$set$878
	.uleb128 0x8
	.quad	0
	.byte	0x4
	.set L$set$879,LCFI462-LFB3212
	.long L$set$879
	.byte	0xe
	.uleb128 0x20
	.byte	0x9d
	.uleb128 0x4
	.byte	0x9e
	.uleb128 0x3
	.byte	0x4
	.set L$set$880,LCFI463-LCFI462
	.long L$set$880
	.byte	0xde
	.byte	0xdd
	.byte	0xe
	.uleb128 0
	.align	3
LEFDE415:
LSFDE417:
	.set L$set$881,LEFDE417-LASFDE417
	.long L$set$881
LASFDE417:
	.long	LASFDE417-EH_frame1
	.quad	LFB3215-.
	.set L$set$882,LFE3215-LFB3215
	.quad L$set$882
	.uleb128 0x8
	.quad	0
	.byte	0x4
	.set L$set$883,LCFI464-LFB3215
	.long L$set$883
	.byte	0xe
	.uleb128 0x10
	.byte	0x4
	.set L$set$884,LCFI465-LCFI464
	.long L$set$884
	.byte	0xe
	.uleb128 0
	.align	3
LEFDE417:
LSFDE419:
	.set L$set$885,LEFDE419-LASFDE419
	.long L$set$885
LASFDE419:
	.long	LASFDE419-EH_frame1
	.quad	LFB3216-.
	.set L$set$886,LFE3216-LFB3216
	.quad L$set$886
	.uleb128 0x8
	.quad	0
	.byte	0x4
	.set L$set$887,LCFI466-LFB3216
	.long L$set$887
	.byte	0xe
	.uleb128 0x40
	.byte	0x9d
	.uleb128 0x8
	.byte	0x9e
	.uleb128 0x7
	.byte	0x4
	.set L$set$888,LCFI467-LCFI466
	.long L$set$888
	.byte	0xde
	.byte	0xdd
	.byte	0xe
	.uleb128 0
	.align	3
LEFDE419:
LSFDE421:
	.set L$set$889,LEFDE421-LASFDE421
	.long L$set$889
LASFDE421:
	.long	LASFDE421-EH_frame1
	.quad	LFB3218-.
	.set L$set$890,LFE3218-LFB3218
	.quad L$set$890
	.uleb128 0x8
	.quad	0
	.byte	0x4
	.set L$set$891,LCFI468-LFB3218
	.long L$set$891
	.byte	0xe
	.uleb128 0x10
	.byte	0x4
	.set L$set$892,LCFI469-LCFI468
	.long L$set$892
	.byte	0xe
	.uleb128 0
	.align	3
LEFDE421:
LSFDE423:
	.set L$set$893,LEFDE423-LASFDE423
	.long L$set$893
LASFDE423:
	.long	LASFDE423-EH_frame1
	.quad	LFB3222-.
	.set L$set$894,LFE3222-LFB3222
	.quad L$set$894
	.uleb128 0x8
	.quad	0
	.byte	0x4
	.set L$set$895,LCFI470-LFB3222
	.long L$set$895
	.byte	0xe
	.uleb128 0x20
	.byte	0x9d
	.uleb128 0x4
	.byte	0x9e
	.uleb128 0x3
	.byte	0x4
	.set L$set$896,LCFI471-LCFI470
	.long L$set$896
	.byte	0xde
	.byte	0xdd
	.byte	0xe
	.uleb128 0
	.align	3
LEFDE423:
LSFDE425:
	.set L$set$897,LEFDE425-LASFDE425
	.long L$set$897
LASFDE425:
	.long	LASFDE425-EH_frame1
	.quad	LFB3225-.
	.set L$set$898,LFE3225-LFB3225
	.quad L$set$898
	.uleb128 0x8
	.quad	0
	.byte	0x4
	.set L$set$899,LCFI472-LFB3225
	.long L$set$899
	.byte	0xe
	.uleb128 0x20
	.byte	0x9d
	.uleb128 0x4
	.byte	0x9e
	.uleb128 0x3
	.byte	0x4
	.set L$set$900,LCFI473-LCFI472
	.long L$set$900
	.byte	0xde
	.byte	0xdd
	.byte	0xe
	.uleb128 0
	.align	3
LEFDE425:
LSFDE427:
	.set L$set$901,LEFDE427-LASFDE427
	.long L$set$901
LASFDE427:
	.long	LASFDE427-EH_frame1
	.quad	LFB3219-.
	.set L$set$902,LFE3219-LFB3219
	.quad L$set$902
	.uleb128 0x8
	.quad	0
	.byte	0x4
	.set L$set$903,LCFI474-LFB3219
	.long L$set$903
	.byte	0xe
	.uleb128 0x40
	.byte	0x9d
	.uleb128 0x8
	.byte	0x9e
	.uleb128 0x7
	.byte	0x4
	.set L$set$904,LCFI475-LCFI474
	.long L$set$904
	.byte	0x93
	.uleb128 0x6
	.byte	0x4
	.set L$set$905,LCFI476-LCFI475
	.long L$set$905
	.byte	0xde
	.byte	0xdd
	.byte	0xd3
	.byte	0xe
	.uleb128 0
	.align	3
LEFDE427:
LSFDE429:
	.set L$set$906,LEFDE429-LASFDE429
	.long L$set$906
LASFDE429:
	.long	LASFDE429-EH_frame1
	.quad	LFB3226-.
	.set L$set$907,LFE3226-LFB3226
	.quad L$set$907
	.uleb128 0x8
	.quad	0
	.byte	0x4
	.set L$set$908,LCFI477-LFB3226
	.long L$set$908
	.byte	0xe
	.uleb128 0x20
	.byte	0x9d
	.uleb128 0x4
	.byte	0x9e
	.uleb128 0x3
	.byte	0x4
	.set L$set$909,LCFI478-LCFI477
	.long L$set$909
	.byte	0xde
	.byte	0xdd
	.byte	0xe
	.uleb128 0
	.align	3
LEFDE429:
LSFDE431:
	.set L$set$910,LEFDE431-LASFDE431
	.long L$set$910
LASFDE431:
	.long	LASFDE431-EH_frame1
	.quad	LFB3227-.
	.set L$set$911,LFE3227-LFB3227
	.quad L$set$911
	.uleb128 0x8
	.quad	0
	.byte	0x4
	.set L$set$912,LCFI479-LFB3227
	.long L$set$912
	.byte	0xe
	.uleb128 0x30
	.byte	0x4
	.set L$set$913,LCFI480-LCFI479
	.long L$set$913
	.byte	0xe
	.uleb128 0
	.align	3
LEFDE431:
LSFDE433:
	.set L$set$914,LEFDE433-LASFDE433
	.long L$set$914
LASFDE433:
	.long	LASFDE433-EH_frame1
	.quad	LFB3228-.
	.set L$set$915,LFE3228-LFB3228
	.quad L$set$915
	.uleb128 0x8
	.quad	0
	.byte	0x4
	.set L$set$916,LCFI481-LFB3228
	.long L$set$916
	.byte	0xe
	.uleb128 0x30
	.byte	0x9d
	.uleb128 0x6
	.byte	0x9e
	.uleb128 0x5
	.byte	0x4
	.set L$set$917,LCFI482-LCFI481
	.long L$set$917
	.byte	0xde
	.byte	0xdd
	.byte	0xe
	.uleb128 0
	.align	3
LEFDE433:
LSFDE435:
	.set L$set$918,LEFDE435-LASFDE435
	.long L$set$918
LASFDE435:
	.long	LASFDE435-EH_frame1
	.quad	LFB3229-.
	.set L$set$919,LFE3229-LFB3229
	.quad L$set$919
	.uleb128 0x8
	.quad	0
	.byte	0x4
	.set L$set$920,LCFI483-LFB3229
	.long L$set$920
	.byte	0xe
	.uleb128 0x30
	.byte	0x9d
	.uleb128 0x6
	.byte	0x9e
	.uleb128 0x5
	.byte	0x4
	.set L$set$921,LCFI484-LCFI483
	.long L$set$921
	.byte	0xde
	.byte	0xdd
	.byte	0xe
	.uleb128 0
	.align	3
LEFDE435:
LSFDE437:
	.set L$set$922,LEFDE437-LASFDE437
	.long L$set$922
LASFDE437:
	.long	LASFDE437-EH_frame1
	.quad	LFB3231-.
	.set L$set$923,LFE3231-LFB3231
	.quad L$set$923
	.uleb128 0x8
	.quad	0
	.byte	0x4
	.set L$set$924,LCFI485-LFB3231
	.long L$set$924
	.byte	0xe
	.uleb128 0x20
	.byte	0x9d
	.uleb128 0x4
	.byte	0x9e
	.uleb128 0x3
	.byte	0x4
	.set L$set$925,LCFI486-LCFI485
	.long L$set$925
	.byte	0xde
	.byte	0xdd
	.byte	0xe
	.uleb128 0
	.align	3
LEFDE437:
LSFDE439:
	.set L$set$926,LEFDE439-LASFDE439
	.long L$set$926
LASFDE439:
	.long	LASFDE439-EH_frame1
	.quad	LFB3232-.
	.set L$set$927,LFE3232-LFB3232
	.quad L$set$927
	.uleb128 0x8
	.quad	0
	.byte	0x4
	.set L$set$928,LCFI487-LFB3232
	.long L$set$928
	.byte	0xe
	.uleb128 0x20
	.byte	0x9d
	.uleb128 0x4
	.byte	0x9e
	.uleb128 0x3
	.byte	0x4
	.set L$set$929,LCFI488-LCFI487
	.long L$set$929
	.byte	0xde
	.byte	0xdd
	.byte	0xe
	.uleb128 0
	.align	3
LEFDE439:
LSFDE441:
	.set L$set$930,LEFDE441-LASFDE441
	.long L$set$930
LASFDE441:
	.long	LASFDE441-EH_frame1
	.quad	LFB3233-.
	.set L$set$931,LFE3233-LFB3233
	.quad L$set$931
	.uleb128 0x8
	.quad	0
	.byte	0x4
	.set L$set$932,LCFI489-LFB3233
	.long L$set$932
	.byte	0xe
	.uleb128 0x30
	.byte	0x9d
	.uleb128 0x6
	.byte	0x9e
	.uleb128 0x5
	.byte	0x4
	.set L$set$933,LCFI490-LCFI489
	.long L$set$933
	.byte	0xde
	.byte	0xdd
	.byte	0xe
	.uleb128 0
	.align	3
LEFDE441:
LSFDE443:
	.set L$set$934,LEFDE443-LASFDE443
	.long L$set$934
LASFDE443:
	.long	LASFDE443-EH_frame1
	.quad	LFB3236-.
	.set L$set$935,LFE3236-LFB3236
	.quad L$set$935
	.uleb128 0x8
	.quad	0
	.byte	0x4
	.set L$set$936,LCFI491-LFB3236
	.long L$set$936
	.byte	0xe
	.uleb128 0x30
	.byte	0x9d
	.uleb128 0x6
	.byte	0x9e
	.uleb128 0x5
	.byte	0x4
	.set L$set$937,LCFI492-LCFI491
	.long L$set$937
	.byte	0x93
	.uleb128 0x4
	.byte	0x4
	.set L$set$938,LCFI493-LCFI492
	.long L$set$938
	.byte	0xde
	.byte	0xdd
	.byte	0xd3
	.byte	0xe
	.uleb128 0
	.align	3
LEFDE443:
LSFDE445:
	.set L$set$939,LEFDE445-LASFDE445
	.long L$set$939
LASFDE445:
	.long	LASFDE445-EH_frame1
	.quad	LFB3237-.
	.set L$set$940,LFE3237-LFB3237
	.quad L$set$940
	.uleb128 0x8
	.quad	0
	.byte	0x4
	.set L$set$941,LCFI494-LFB3237
	.long L$set$941
	.byte	0xe
	.uleb128 0x40
	.byte	0x9d
	.uleb128 0x8
	.byte	0x9e
	.uleb128 0x7
	.byte	0x4
	.set L$set$942,LCFI495-LCFI494
	.long L$set$942
	.byte	0xde
	.byte	0xdd
	.byte	0xe
	.uleb128 0
	.align	3
LEFDE445:
LSFDE447:
	.set L$set$943,LEFDE447-LASFDE447
	.long L$set$943
LASFDE447:
	.long	LASFDE447-EH_frame1
	.quad	LFB3238-.
	.set L$set$944,LFE3238-LFB3238
	.quad L$set$944
	.uleb128 0x8
	.quad	0
	.byte	0x4
	.set L$set$945,LCFI496-LFB3238
	.long L$set$945
	.byte	0xe
	.uleb128 0x40
	.byte	0x9d
	.uleb128 0x8
	.byte	0x9e
	.uleb128 0x7
	.byte	0x4
	.set L$set$946,LCFI497-LCFI496
	.long L$set$946
	.byte	0xde
	.byte	0xdd
	.byte	0xe
	.uleb128 0
	.align	3
LEFDE447:
LSFDE449:
	.set L$set$947,LEFDE449-LASFDE449
	.long L$set$947
LASFDE449:
	.long	LASFDE449-EH_frame1
	.quad	LFB3240-.
	.set L$set$948,LFE3240-LFB3240
	.quad L$set$948
	.uleb128 0x8
	.quad	0
	.byte	0x4
	.set L$set$949,LCFI498-LFB3240
	.long L$set$949
	.byte	0xe
	.uleb128 0x10
	.byte	0x4
	.set L$set$950,LCFI499-LCFI498
	.long L$set$950
	.byte	0xe
	.uleb128 0
	.align	3
LEFDE449:
LSFDE451:
	.set L$set$951,LEFDE451-LASFDE451
	.long L$set$951
LASFDE451:
	.long	LASFDE451-EH_frame1
	.quad	LFB3242-.
	.set L$set$952,LFE3242-LFB3242
	.quad L$set$952
	.uleb128 0x8
	.quad	0
	.byte	0x4
	.set L$set$953,LCFI500-LFB3242
	.long L$set$953
	.byte	0xe
	.uleb128 0x40
	.byte	0x9d
	.uleb128 0x8
	.byte	0x9e
	.uleb128 0x7
	.byte	0x4
	.set L$set$954,LCFI501-LCFI500
	.long L$set$954
	.byte	0x93
	.uleb128 0x6
	.byte	0x4
	.set L$set$955,LCFI502-LCFI501
	.long L$set$955
	.byte	0xde
	.byte	0xdd
	.byte	0xd3
	.byte	0xe
	.uleb128 0
	.align	3
LEFDE451:
LSFDE453:
	.set L$set$956,LEFDE453-LASFDE453
	.long L$set$956
LASFDE453:
	.long	LASFDE453-EH_frame1
	.quad	LFB3243-.
	.set L$set$957,LFE3243-LFB3243
	.quad L$set$957
	.uleb128 0x8
	.quad	0
	.byte	0x4
	.set L$set$958,LCFI503-LFB3243
	.long L$set$958
	.byte	0xe
	.uleb128 0x10
	.byte	0x4
	.set L$set$959,LCFI504-LCFI503
	.long L$set$959
	.byte	0xe
	.uleb128 0
	.align	3
LEFDE453:
LSFDE455:
	.set L$set$960,LEFDE455-LASFDE455
	.long L$set$960
LASFDE455:
	.long	LASFDE455-EH_frame1
	.quad	LFB3245-.
	.set L$set$961,LFE3245-LFB3245
	.quad L$set$961
	.uleb128 0x8
	.quad	0
	.byte	0x4
	.set L$set$962,LCFI505-LFB3245
	.long L$set$962
	.byte	0xe
	.uleb128 0x10
	.byte	0x4
	.set L$set$963,LCFI506-LCFI505
	.long L$set$963
	.byte	0xe
	.uleb128 0
	.align	3
LEFDE455:
LSFDE457:
	.set L$set$964,LEFDE457-LASFDE457
	.long L$set$964
LASFDE457:
	.long	LASFDE457-EH_frame1
	.quad	LFB3247-.
	.set L$set$965,LFE3247-LFB3247
	.quad L$set$965
	.uleb128 0x8
	.quad	0
	.byte	0x4
	.set L$set$966,LCFI507-LFB3247
	.long L$set$966
	.byte	0xe
	.uleb128 0x10
	.byte	0x4
	.set L$set$967,LCFI508-LCFI507
	.long L$set$967
	.byte	0xe
	.uleb128 0
	.align	3
LEFDE457:
LSFDE459:
	.set L$set$968,LEFDE459-LASFDE459
	.long L$set$968
LASFDE459:
	.long	LASFDE459-EH_frame1
	.quad	LFB3248-.
	.set L$set$969,LFE3248-LFB3248
	.quad L$set$969
	.uleb128 0x8
	.quad	0
	.byte	0x4
	.set L$set$970,LCFI509-LFB3248
	.long L$set$970
	.byte	0xe
	.uleb128 0x40
	.byte	0x9d
	.uleb128 0x8
	.byte	0x9e
	.uleb128 0x7
	.byte	0x4
	.set L$set$971,LCFI510-LCFI509
	.long L$set$971
	.byte	0x93
	.uleb128 0x6
	.byte	0x94
	.uleb128 0x5
	.byte	0x4
	.set L$set$972,LCFI511-LCFI510
	.long L$set$972
	.byte	0xde
	.byte	0xdd
	.byte	0xd3
	.byte	0xd4
	.byte	0xe
	.uleb128 0
	.align	3
LEFDE459:
LSFDE461:
	.set L$set$973,LEFDE461-LASFDE461
	.long L$set$973
LASFDE461:
	.long	LASFDE461-EH_frame1
	.quad	LFB3250-.
	.set L$set$974,LFE3250-LFB3250
	.quad L$set$974
	.uleb128 0x8
	.quad	0
	.byte	0x4
	.set L$set$975,LCFI512-LFB3250
	.long L$set$975
	.byte	0xe
	.uleb128 0x20
	.byte	0x9d
	.uleb128 0x4
	.byte	0x9e
	.uleb128 0x3
	.byte	0x4
	.set L$set$976,LCFI513-LCFI512
	.long L$set$976
	.byte	0xde
	.byte	0xdd
	.byte	0xe
	.uleb128 0
	.align	3
LEFDE461:
LSFDE463:
	.set L$set$977,LEFDE463-LASFDE463
	.long L$set$977
LASFDE463:
	.long	LASFDE463-EH_frame1
	.quad	LFB3251-.
	.set L$set$978,LFE3251-LFB3251
	.quad L$set$978
	.uleb128 0x8
	.quad	0
	.byte	0x4
	.set L$set$979,LCFI514-LFB3251
	.long L$set$979
	.byte	0xe
	.uleb128 0x30
	.byte	0x9d
	.uleb128 0x6
	.byte	0x9e
	.uleb128 0x5
	.byte	0x4
	.set L$set$980,LCFI515-LCFI514
	.long L$set$980
	.byte	0xde
	.byte	0xdd
	.byte	0xe
	.uleb128 0
	.align	3
LEFDE463:
LSFDE465:
	.set L$set$981,LEFDE465-LASFDE465
	.long L$set$981
LASFDE465:
	.long	LASFDE465-EH_frame1
	.quad	LFB3252-.
	.set L$set$982,LFE3252-LFB3252
	.quad L$set$982
	.uleb128 0x8
	.quad	0
	.byte	0x4
	.set L$set$983,LCFI516-LFB3252
	.long L$set$983
	.byte	0xe
	.uleb128 0x10
	.byte	0x4
	.set L$set$984,LCFI517-LCFI516
	.long L$set$984
	.byte	0xe
	.uleb128 0
	.align	3
LEFDE465:
LSFDE467:
	.set L$set$985,LEFDE467-LASFDE467
	.long L$set$985
LASFDE467:
	.long	LASFDE467-EH_frame1
	.quad	LFB3253-.
	.set L$set$986,LFE3253-LFB3253
	.quad L$set$986
	.uleb128 0x8
	.quad	0
	.byte	0x4
	.set L$set$987,LCFI518-LFB3253
	.long L$set$987
	.byte	0xe
	.uleb128 0x10
	.byte	0x4
	.set L$set$988,LCFI519-LCFI518
	.long L$set$988
	.byte	0xe
	.uleb128 0
	.align	3
LEFDE467:
LSFDE469:
	.set L$set$989,LEFDE469-LASFDE469
	.long L$set$989
LASFDE469:
	.long	LASFDE469-EH_frame1
	.quad	LFB3254-.
	.set L$set$990,LFE3254-LFB3254
	.quad L$set$990
	.uleb128 0x8
	.quad	0
	.byte	0x4
	.set L$set$991,LCFI520-LFB3254
	.long L$set$991
	.byte	0xe
	.uleb128 0x30
	.byte	0x9d
	.uleb128 0x6
	.byte	0x9e
	.uleb128 0x5
	.byte	0x4
	.set L$set$992,LCFI521-LCFI520
	.long L$set$992
	.byte	0xde
	.byte	0xdd
	.byte	0xe
	.uleb128 0
	.align	3
LEFDE469:
LSFDE471:
	.set L$set$993,LEFDE471-LASFDE471
	.long L$set$993
LASFDE471:
	.long	LASFDE471-EH_frame1
	.quad	LFB3255-.
	.set L$set$994,LFE3255-LFB3255
	.quad L$set$994
	.uleb128 0x8
	.quad	0
	.byte	0x4
	.set L$set$995,LCFI522-LFB3255
	.long L$set$995
	.byte	0xe
	.uleb128 0x40
	.byte	0x9d
	.uleb128 0x8
	.byte	0x9e
	.uleb128 0x7
	.byte	0x4
	.set L$set$996,LCFI523-LCFI522
	.long L$set$996
	.byte	0xde
	.byte	0xdd
	.byte	0xe
	.uleb128 0
	.align	3
LEFDE471:
LSFDE473:
	.set L$set$997,LEFDE473-LASFDE473
	.long L$set$997
LASFDE473:
	.long	LASFDE473-EH_frame1
	.quad	LFB3256-.
	.set L$set$998,LFE3256-LFB3256
	.quad L$set$998
	.uleb128 0x8
	.quad	0
	.byte	0x4
	.set L$set$999,LCFI524-LFB3256
	.long L$set$999
	.byte	0xe
	.uleb128 0x20
	.byte	0x9d
	.uleb128 0x4
	.byte	0x9e
	.uleb128 0x3
	.byte	0x4
	.set L$set$1000,LCFI525-LCFI524
	.long L$set$1000
	.byte	0xde
	.byte	0xdd
	.byte	0xe
	.uleb128 0
	.align	3
LEFDE473:
LSFDE475:
	.set L$set$1001,LEFDE475-LASFDE475
	.long L$set$1001
LASFDE475:
	.long	LASFDE475-EH_frame1
	.quad	LFB3257-.
	.set L$set$1002,LFE3257-LFB3257
	.quad L$set$1002
	.uleb128 0x8
	.quad	0
	.byte	0x4
	.set L$set$1003,LCFI526-LFB3257
	.long L$set$1003
	.byte	0xe
	.uleb128 0x10
	.byte	0x9d
	.uleb128 0x2
	.byte	0x9e
	.uleb128 0x1
	.byte	0x4
	.set L$set$1004,LCFI527-LCFI526
	.long L$set$1004
	.byte	0xde
	.byte	0xdd
	.byte	0xe
	.uleb128 0
	.align	3
LEFDE475:
	.private_extern ___dso_handle
	.ident	"GCC: (Homebrew GCC 11.2.0_3) 11.2.0"
	.mod_init_func
_Mod.init:
	.align	3
	.xword	__GLOBAL__sub_I_Ford_Fulkerson_2.cpp
	.subsections_via_symbols
